opt subtitle "Microchip Technology Omniscient Code Generator v1.41 (Free mode) build 201701250102"

opt pagewidth 120

	opt lm

	processor	16F18313
opt include "C:\Program Files (x86)\Microchip\xc8\v1.41\include\16f18313.cgen.inc"
clrc	macro
	bcf	3,0
	endm
clrz	macro
	bcf	3,2
	endm
setc	macro
	bsf	3,0
	endm
setz	macro
	bsf	3,2
	endm
skipc	macro
	btfss	3,0
	endm
skipz	macro
	btfss	3,2
	endm
skipnc	macro
	btfsc	3,0
	endm
skipnz	macro
	btfsc	3,2
	endm
pushw	macro
	movwi fsr1++
	endm
popw	macro
	moviw --fsr1
	endm
# 51 "C:\Program Files (x86)\Microchip\xc8\v1.41\include\pic16f18313.h"
INDF0 equ 00h ;# 
# 70 "C:\Program Files (x86)\Microchip\xc8\v1.41\include\pic16f18313.h"
INDF1 equ 01h ;# 
# 89 "C:\Program Files (x86)\Microchip\xc8\v1.41\include\pic16f18313.h"
PCL equ 02h ;# 
# 108 "C:\Program Files (x86)\Microchip\xc8\v1.41\include\pic16f18313.h"
STATUS equ 03h ;# 
# 169 "C:\Program Files (x86)\Microchip\xc8\v1.41\include\pic16f18313.h"
FSR0L equ 04h ;# 
# 188 "C:\Program Files (x86)\Microchip\xc8\v1.41\include\pic16f18313.h"
FSR0H equ 05h ;# 
# 210 "C:\Program Files (x86)\Microchip\xc8\v1.41\include\pic16f18313.h"
FSR1L equ 06h ;# 
# 229 "C:\Program Files (x86)\Microchip\xc8\v1.41\include\pic16f18313.h"
FSR1H equ 07h ;# 
# 248 "C:\Program Files (x86)\Microchip\xc8\v1.41\include\pic16f18313.h"
BSR equ 08h ;# 
# 299 "C:\Program Files (x86)\Microchip\xc8\v1.41\include\pic16f18313.h"
WREG equ 09h ;# 
# 318 "C:\Program Files (x86)\Microchip\xc8\v1.41\include\pic16f18313.h"
PCLATH equ 0Ah ;# 
# 337 "C:\Program Files (x86)\Microchip\xc8\v1.41\include\pic16f18313.h"
INTCON equ 0Bh ;# 
# 369 "C:\Program Files (x86)\Microchip\xc8\v1.41\include\pic16f18313.h"
PORTA equ 0Ch ;# 
# 418 "C:\Program Files (x86)\Microchip\xc8\v1.41\include\pic16f18313.h"
PIR0 equ 010h ;# 
# 450 "C:\Program Files (x86)\Microchip\xc8\v1.41\include\pic16f18313.h"
PIR1 equ 011h ;# 
# 511 "C:\Program Files (x86)\Microchip\xc8\v1.41\include\pic16f18313.h"
PIR2 equ 012h ;# 
# 543 "C:\Program Files (x86)\Microchip\xc8\v1.41\include\pic16f18313.h"
PIR3 equ 013h ;# 
# 581 "C:\Program Files (x86)\Microchip\xc8\v1.41\include\pic16f18313.h"
PIR4 equ 014h ;# 
# 613 "C:\Program Files (x86)\Microchip\xc8\v1.41\include\pic16f18313.h"
TMR0L equ 015h ;# 
# 618 "C:\Program Files (x86)\Microchip\xc8\v1.41\include\pic16f18313.h"
TMR0 equ 015h ;# 
# 750 "C:\Program Files (x86)\Microchip\xc8\v1.41\include\pic16f18313.h"
TMR0H equ 016h ;# 
# 755 "C:\Program Files (x86)\Microchip\xc8\v1.41\include\pic16f18313.h"
PR0 equ 016h ;# 
# 1003 "C:\Program Files (x86)\Microchip\xc8\v1.41\include\pic16f18313.h"
T0CON0 equ 017h ;# 
# 1067 "C:\Program Files (x86)\Microchip\xc8\v1.41\include\pic16f18313.h"
T0CON1 equ 018h ;# 
# 1143 "C:\Program Files (x86)\Microchip\xc8\v1.41\include\pic16f18313.h"
TMR1 equ 019h ;# 
# 1149 "C:\Program Files (x86)\Microchip\xc8\v1.41\include\pic16f18313.h"
TMR1L equ 019h ;# 
# 1168 "C:\Program Files (x86)\Microchip\xc8\v1.41\include\pic16f18313.h"
TMR1H equ 01Ah ;# 
# 1187 "C:\Program Files (x86)\Microchip\xc8\v1.41\include\pic16f18313.h"
T1CON equ 01Bh ;# 
# 1258 "C:\Program Files (x86)\Microchip\xc8\v1.41\include\pic16f18313.h"
T1GCON equ 01Ch ;# 
# 1327 "C:\Program Files (x86)\Microchip\xc8\v1.41\include\pic16f18313.h"
TMR2 equ 01Dh ;# 
# 1346 "C:\Program Files (x86)\Microchip\xc8\v1.41\include\pic16f18313.h"
PR2 equ 01Eh ;# 
# 1365 "C:\Program Files (x86)\Microchip\xc8\v1.41\include\pic16f18313.h"
T2CON equ 01Fh ;# 
# 1435 "C:\Program Files (x86)\Microchip\xc8\v1.41\include\pic16f18313.h"
TRISA equ 08Ch ;# 
# 1479 "C:\Program Files (x86)\Microchip\xc8\v1.41\include\pic16f18313.h"
PIE0 equ 090h ;# 
# 1511 "C:\Program Files (x86)\Microchip\xc8\v1.41\include\pic16f18313.h"
PIE1 equ 091h ;# 
# 1572 "C:\Program Files (x86)\Microchip\xc8\v1.41\include\pic16f18313.h"
PIE2 equ 092h ;# 
# 1604 "C:\Program Files (x86)\Microchip\xc8\v1.41\include\pic16f18313.h"
PIE3 equ 093h ;# 
# 1642 "C:\Program Files (x86)\Microchip\xc8\v1.41\include\pic16f18313.h"
PIE4 equ 094h ;# 
# 1674 "C:\Program Files (x86)\Microchip\xc8\v1.41\include\pic16f18313.h"
WDTCON equ 097h ;# 
# 1732 "C:\Program Files (x86)\Microchip\xc8\v1.41\include\pic16f18313.h"
ADRES equ 09Bh ;# 
# 1738 "C:\Program Files (x86)\Microchip\xc8\v1.41\include\pic16f18313.h"
ADRESL equ 09Bh ;# 
# 1757 "C:\Program Files (x86)\Microchip\xc8\v1.41\include\pic16f18313.h"
ADRESH equ 09Ch ;# 
# 1776 "C:\Program Files (x86)\Microchip\xc8\v1.41\include\pic16f18313.h"
ADCON0 equ 09Dh ;# 
# 1861 "C:\Program Files (x86)\Microchip\xc8\v1.41\include\pic16f18313.h"
ADCON1 equ 09Eh ;# 
# 1932 "C:\Program Files (x86)\Microchip\xc8\v1.41\include\pic16f18313.h"
ADACT equ 09Fh ;# 
# 1977 "C:\Program Files (x86)\Microchip\xc8\v1.41\include\pic16f18313.h"
LATA equ 010Ch ;# 
# 2021 "C:\Program Files (x86)\Microchip\xc8\v1.41\include\pic16f18313.h"
CM1CON0 equ 0111h ;# 
# 2072 "C:\Program Files (x86)\Microchip\xc8\v1.41\include\pic16f18313.h"
CM1CON1 equ 0112h ;# 
# 2147 "C:\Program Files (x86)\Microchip\xc8\v1.41\include\pic16f18313.h"
CMOUT equ 0115h ;# 
# 2166 "C:\Program Files (x86)\Microchip\xc8\v1.41\include\pic16f18313.h"
BORCON equ 0116h ;# 
# 2192 "C:\Program Files (x86)\Microchip\xc8\v1.41\include\pic16f18313.h"
FVRCON equ 0117h ;# 
# 2267 "C:\Program Files (x86)\Microchip\xc8\v1.41\include\pic16f18313.h"
DACCON0 equ 0118h ;# 
# 2322 "C:\Program Files (x86)\Microchip\xc8\v1.41\include\pic16f18313.h"
DACCON1 equ 0119h ;# 
# 2373 "C:\Program Files (x86)\Microchip\xc8\v1.41\include\pic16f18313.h"
ANSELA equ 018Ch ;# 
# 2417 "C:\Program Files (x86)\Microchip\xc8\v1.41\include\pic16f18313.h"
VREGCON equ 0197h ;# 
# 2437 "C:\Program Files (x86)\Microchip\xc8\v1.41\include\pic16f18313.h"
RC1REG equ 0199h ;# 
# 2442 "C:\Program Files (x86)\Microchip\xc8\v1.41\include\pic16f18313.h"
RCREG equ 0199h ;# 
# 2446 "C:\Program Files (x86)\Microchip\xc8\v1.41\include\pic16f18313.h"
RCREG1 equ 0199h ;# 
# 2490 "C:\Program Files (x86)\Microchip\xc8\v1.41\include\pic16f18313.h"
TX1REG equ 019Ah ;# 
# 2495 "C:\Program Files (x86)\Microchip\xc8\v1.41\include\pic16f18313.h"
TXREG1 equ 019Ah ;# 
# 2499 "C:\Program Files (x86)\Microchip\xc8\v1.41\include\pic16f18313.h"
TXREG equ 019Ah ;# 
# 2543 "C:\Program Files (x86)\Microchip\xc8\v1.41\include\pic16f18313.h"
SP1BRG equ 019Bh ;# 
# 2549 "C:\Program Files (x86)\Microchip\xc8\v1.41\include\pic16f18313.h"
SP1BRGL equ 019Bh ;# 
# 2554 "C:\Program Files (x86)\Microchip\xc8\v1.41\include\pic16f18313.h"
SPBRG equ 019Bh ;# 
# 2558 "C:\Program Files (x86)\Microchip\xc8\v1.41\include\pic16f18313.h"
SPBRG1 equ 019Bh ;# 
# 2562 "C:\Program Files (x86)\Microchip\xc8\v1.41\include\pic16f18313.h"
SPBRGL equ 019Bh ;# 
# 2618 "C:\Program Files (x86)\Microchip\xc8\v1.41\include\pic16f18313.h"
SP1BRGH equ 019Ch ;# 
# 2623 "C:\Program Files (x86)\Microchip\xc8\v1.41\include\pic16f18313.h"
SPBRGH equ 019Ch ;# 
# 2627 "C:\Program Files (x86)\Microchip\xc8\v1.41\include\pic16f18313.h"
SPBRGH1 equ 019Ch ;# 
# 2671 "C:\Program Files (x86)\Microchip\xc8\v1.41\include\pic16f18313.h"
RC1STA equ 019Dh ;# 
# 2676 "C:\Program Files (x86)\Microchip\xc8\v1.41\include\pic16f18313.h"
RCSTA1 equ 019Dh ;# 
# 2680 "C:\Program Files (x86)\Microchip\xc8\v1.41\include\pic16f18313.h"
RCSTA equ 019Dh ;# 
# 2850 "C:\Program Files (x86)\Microchip\xc8\v1.41\include\pic16f18313.h"
TX1STA equ 019Eh ;# 
# 2855 "C:\Program Files (x86)\Microchip\xc8\v1.41\include\pic16f18313.h"
TXSTA1 equ 019Eh ;# 
# 2859 "C:\Program Files (x86)\Microchip\xc8\v1.41\include\pic16f18313.h"
TXSTA equ 019Eh ;# 
# 3029 "C:\Program Files (x86)\Microchip\xc8\v1.41\include\pic16f18313.h"
BAUD1CON equ 019Fh ;# 
# 3034 "C:\Program Files (x86)\Microchip\xc8\v1.41\include\pic16f18313.h"
BAUDCON1 equ 019Fh ;# 
# 3038 "C:\Program Files (x86)\Microchip\xc8\v1.41\include\pic16f18313.h"
BAUDCTL1 equ 019Fh ;# 
# 3042 "C:\Program Files (x86)\Microchip\xc8\v1.41\include\pic16f18313.h"
BAUDCON equ 019Fh ;# 
# 3046 "C:\Program Files (x86)\Microchip\xc8\v1.41\include\pic16f18313.h"
BAUDCTL equ 019Fh ;# 
# 3274 "C:\Program Files (x86)\Microchip\xc8\v1.41\include\pic16f18313.h"
WPUA equ 020Ch ;# 
# 3323 "C:\Program Files (x86)\Microchip\xc8\v1.41\include\pic16f18313.h"
SSP1BUF equ 0211h ;# 
# 3328 "C:\Program Files (x86)\Microchip\xc8\v1.41\include\pic16f18313.h"
SSPBUF equ 0211h ;# 
# 3576 "C:\Program Files (x86)\Microchip\xc8\v1.41\include\pic16f18313.h"
SSP1ADD equ 0212h ;# 
# 3581 "C:\Program Files (x86)\Microchip\xc8\v1.41\include\pic16f18313.h"
SSPADD equ 0212h ;# 
# 3829 "C:\Program Files (x86)\Microchip\xc8\v1.41\include\pic16f18313.h"
SSP1MSK equ 0213h ;# 
# 3834 "C:\Program Files (x86)\Microchip\xc8\v1.41\include\pic16f18313.h"
SSPMSK equ 0213h ;# 
# 4082 "C:\Program Files (x86)\Microchip\xc8\v1.41\include\pic16f18313.h"
SSP1STAT equ 0214h ;# 
# 4087 "C:\Program Files (x86)\Microchip\xc8\v1.41\include\pic16f18313.h"
SSPSTAT equ 0214h ;# 
# 4203 "C:\Program Files (x86)\Microchip\xc8\v1.41\include\pic16f18313.h"
SSP1CON1 equ 0215h ;# 
# 4208 "C:\Program Files (x86)\Microchip\xc8\v1.41\include\pic16f18313.h"
SSPCON equ 0215h ;# 
# 4212 "C:\Program Files (x86)\Microchip\xc8\v1.41\include\pic16f18313.h"
SSPCON1 equ 0215h ;# 
# 4216 "C:\Program Files (x86)\Microchip\xc8\v1.41\include\pic16f18313.h"
SSP1CON equ 0215h ;# 
# 4472 "C:\Program Files (x86)\Microchip\xc8\v1.41\include\pic16f18313.h"
SSP1CON2 equ 0216h ;# 
# 4477 "C:\Program Files (x86)\Microchip\xc8\v1.41\include\pic16f18313.h"
SSPCON2 equ 0216h ;# 
# 4593 "C:\Program Files (x86)\Microchip\xc8\v1.41\include\pic16f18313.h"
SSP1CON3 equ 0217h ;# 
# 4598 "C:\Program Files (x86)\Microchip\xc8\v1.41\include\pic16f18313.h"
SSPCON3 equ 0217h ;# 
# 4714 "C:\Program Files (x86)\Microchip\xc8\v1.41\include\pic16f18313.h"
ODCONA equ 028Ch ;# 
# 4758 "C:\Program Files (x86)\Microchip\xc8\v1.41\include\pic16f18313.h"
CCPR1 equ 0291h ;# 
# 4764 "C:\Program Files (x86)\Microchip\xc8\v1.41\include\pic16f18313.h"
CCPR1L equ 0291h ;# 
# 4783 "C:\Program Files (x86)\Microchip\xc8\v1.41\include\pic16f18313.h"
CCPR1H equ 0292h ;# 
# 4802 "C:\Program Files (x86)\Microchip\xc8\v1.41\include\pic16f18313.h"
CCP1CON equ 0293h ;# 
# 4866 "C:\Program Files (x86)\Microchip\xc8\v1.41\include\pic16f18313.h"
CCP1CAP equ 0294h ;# 
# 4905 "C:\Program Files (x86)\Microchip\xc8\v1.41\include\pic16f18313.h"
CCPR2 equ 0295h ;# 
# 4911 "C:\Program Files (x86)\Microchip\xc8\v1.41\include\pic16f18313.h"
CCPR2L equ 0295h ;# 
# 4930 "C:\Program Files (x86)\Microchip\xc8\v1.41\include\pic16f18313.h"
CCPR2H equ 0296h ;# 
# 4949 "C:\Program Files (x86)\Microchip\xc8\v1.41\include\pic16f18313.h"
CCP2CON equ 0297h ;# 
# 5013 "C:\Program Files (x86)\Microchip\xc8\v1.41\include\pic16f18313.h"
CCP2CAP equ 0298h ;# 
# 5052 "C:\Program Files (x86)\Microchip\xc8\v1.41\include\pic16f18313.h"
SLRCONA equ 030Ch ;# 
# 5096 "C:\Program Files (x86)\Microchip\xc8\v1.41\include\pic16f18313.h"
INLVLA equ 038Ch ;# 
# 5145 "C:\Program Files (x86)\Microchip\xc8\v1.41\include\pic16f18313.h"
IOCAP equ 0391h ;# 
# 5194 "C:\Program Files (x86)\Microchip\xc8\v1.41\include\pic16f18313.h"
IOCAN equ 0392h ;# 
# 5243 "C:\Program Files (x86)\Microchip\xc8\v1.41\include\pic16f18313.h"
IOCAF equ 0393h ;# 
# 5292 "C:\Program Files (x86)\Microchip\xc8\v1.41\include\pic16f18313.h"
CLKRCON equ 039Ah ;# 
# 5356 "C:\Program Files (x86)\Microchip\xc8\v1.41\include\pic16f18313.h"
MDCON equ 039Ch ;# 
# 5395 "C:\Program Files (x86)\Microchip\xc8\v1.41\include\pic16f18313.h"
MDSRC equ 039Dh ;# 
# 5440 "C:\Program Files (x86)\Microchip\xc8\v1.41\include\pic16f18313.h"
MDCARH equ 039Eh ;# 
# 5498 "C:\Program Files (x86)\Microchip\xc8\v1.41\include\pic16f18313.h"
MDCARL equ 039Fh ;# 
# 5558 "C:\Program Files (x86)\Microchip\xc8\v1.41\include\pic16f18313.h"
NCO1ACC equ 0498h ;# 
# 5564 "C:\Program Files (x86)\Microchip\xc8\v1.41\include\pic16f18313.h"
NCO1ACCL equ 0498h ;# 
# 5583 "C:\Program Files (x86)\Microchip\xc8\v1.41\include\pic16f18313.h"
NCO1ACCH equ 0499h ;# 
# 5602 "C:\Program Files (x86)\Microchip\xc8\v1.41\include\pic16f18313.h"
NCO1ACCU equ 049Ah ;# 
# 5623 "C:\Program Files (x86)\Microchip\xc8\v1.41\include\pic16f18313.h"
NCO1INC equ 049Bh ;# 
# 5629 "C:\Program Files (x86)\Microchip\xc8\v1.41\include\pic16f18313.h"
NCO1INCL equ 049Bh ;# 
# 5648 "C:\Program Files (x86)\Microchip\xc8\v1.41\include\pic16f18313.h"
NCO1INCH equ 049Ch ;# 
# 5667 "C:\Program Files (x86)\Microchip\xc8\v1.41\include\pic16f18313.h"
NCO1INCU equ 049Dh ;# 
# 5686 "C:\Program Files (x86)\Microchip\xc8\v1.41\include\pic16f18313.h"
NCO1CON equ 049Eh ;# 
# 5725 "C:\Program Files (x86)\Microchip\xc8\v1.41\include\pic16f18313.h"
NCO1CLK equ 049Fh ;# 
# 5751 "C:\Program Files (x86)\Microchip\xc8\v1.41\include\pic16f18313.h"
PWM5DCL equ 0617h ;# 
# 5786 "C:\Program Files (x86)\Microchip\xc8\v1.41\include\pic16f18313.h"
PWM5DCH equ 0618h ;# 
# 5855 "C:\Program Files (x86)\Microchip\xc8\v1.41\include\pic16f18313.h"
PWM5CON equ 0619h ;# 
# 5860 "C:\Program Files (x86)\Microchip\xc8\v1.41\include\pic16f18313.h"
PWM5CON0 equ 0619h ;# 
# 5920 "C:\Program Files (x86)\Microchip\xc8\v1.41\include\pic16f18313.h"
PWM6DCL equ 061Ah ;# 
# 5955 "C:\Program Files (x86)\Microchip\xc8\v1.41\include\pic16f18313.h"
PWM6DCH equ 061Bh ;# 
# 6024 "C:\Program Files (x86)\Microchip\xc8\v1.41\include\pic16f18313.h"
PWM6CON equ 061Ch ;# 
# 6029 "C:\Program Files (x86)\Microchip\xc8\v1.41\include\pic16f18313.h"
PWM6CON0 equ 061Ch ;# 
# 6089 "C:\Program Files (x86)\Microchip\xc8\v1.41\include\pic16f18313.h"
CWG1CLKCON equ 0691h ;# 
# 6116 "C:\Program Files (x86)\Microchip\xc8\v1.41\include\pic16f18313.h"
CWG1DAT equ 0692h ;# 
# 6161 "C:\Program Files (x86)\Microchip\xc8\v1.41\include\pic16f18313.h"
CWG1DBR equ 0693h ;# 
# 6264 "C:\Program Files (x86)\Microchip\xc8\v1.41\include\pic16f18313.h"
CWG1DBF equ 0694h ;# 
# 6367 "C:\Program Files (x86)\Microchip\xc8\v1.41\include\pic16f18313.h"
CWG1CON0 equ 0695h ;# 
# 6467 "C:\Program Files (x86)\Microchip\xc8\v1.41\include\pic16f18313.h"
CWG1CON1 equ 0696h ;# 
# 6544 "C:\Program Files (x86)\Microchip\xc8\v1.41\include\pic16f18313.h"
CWG1AS0 equ 0697h ;# 
# 6663 "C:\Program Files (x86)\Microchip\xc8\v1.41\include\pic16f18313.h"
CWG1AS1 equ 0698h ;# 
# 6695 "C:\Program Files (x86)\Microchip\xc8\v1.41\include\pic16f18313.h"
CWG1STR equ 0699h ;# 
# 6806 "C:\Program Files (x86)\Microchip\xc8\v1.41\include\pic16f18313.h"
NVMADR equ 0891h ;# 
# 6811 "C:\Program Files (x86)\Microchip\xc8\v1.41\include\pic16f18313.h"
EEADR equ 0891h ;# 
# 6815 "C:\Program Files (x86)\Microchip\xc8\v1.41\include\pic16f18313.h"
PMADR equ 0891h ;# 
# 6821 "C:\Program Files (x86)\Microchip\xc8\v1.41\include\pic16f18313.h"
NVMADRL equ 0891h ;# 
# 6826 "C:\Program Files (x86)\Microchip\xc8\v1.41\include\pic16f18313.h"
EEADRL equ 0891h ;# 
# 6830 "C:\Program Files (x86)\Microchip\xc8\v1.41\include\pic16f18313.h"
PMADRL equ 0891h ;# 
# 7222 "C:\Program Files (x86)\Microchip\xc8\v1.41\include\pic16f18313.h"
NVMADRH equ 0892h ;# 
# 7227 "C:\Program Files (x86)\Microchip\xc8\v1.41\include\pic16f18313.h"
EEADRH equ 0892h ;# 
# 7231 "C:\Program Files (x86)\Microchip\xc8\v1.41\include\pic16f18313.h"
PMADRH equ 0892h ;# 
# 7569 "C:\Program Files (x86)\Microchip\xc8\v1.41\include\pic16f18313.h"
NVMDAT equ 0893h ;# 
# 7574 "C:\Program Files (x86)\Microchip\xc8\v1.41\include\pic16f18313.h"
EEDAT equ 0893h ;# 
# 7578 "C:\Program Files (x86)\Microchip\xc8\v1.41\include\pic16f18313.h"
PMDAT equ 0893h ;# 
# 7584 "C:\Program Files (x86)\Microchip\xc8\v1.41\include\pic16f18313.h"
NVMDATL equ 0893h ;# 
# 7589 "C:\Program Files (x86)\Microchip\xc8\v1.41\include\pic16f18313.h"
EEDATL equ 0893h ;# 
# 7593 "C:\Program Files (x86)\Microchip\xc8\v1.41\include\pic16f18313.h"
PMDATL equ 0893h ;# 
# 7985 "C:\Program Files (x86)\Microchip\xc8\v1.41\include\pic16f18313.h"
NVMDATH equ 0894h ;# 
# 7990 "C:\Program Files (x86)\Microchip\xc8\v1.41\include\pic16f18313.h"
EEDATH equ 0894h ;# 
# 7994 "C:\Program Files (x86)\Microchip\xc8\v1.41\include\pic16f18313.h"
PMDATH equ 0894h ;# 
# 8314 "C:\Program Files (x86)\Microchip\xc8\v1.41\include\pic16f18313.h"
NVMCON1 equ 0895h ;# 
# 8319 "C:\Program Files (x86)\Microchip\xc8\v1.41\include\pic16f18313.h"
EECON1 equ 0895h ;# 
# 8323 "C:\Program Files (x86)\Microchip\xc8\v1.41\include\pic16f18313.h"
PMCON1 equ 0895h ;# 
# 8502 "C:\Program Files (x86)\Microchip\xc8\v1.41\include\pic16f18313.h"
NVMCON2 equ 0896h ;# 
# 8507 "C:\Program Files (x86)\Microchip\xc8\v1.41\include\pic16f18313.h"
EECON2 equ 0896h ;# 
# 8511 "C:\Program Files (x86)\Microchip\xc8\v1.41\include\pic16f18313.h"
PMCON2 equ 0896h ;# 
# 8603 "C:\Program Files (x86)\Microchip\xc8\v1.41\include\pic16f18313.h"
PCON0 equ 089Bh ;# 
# 8659 "C:\Program Files (x86)\Microchip\xc8\v1.41\include\pic16f18313.h"
PMD0 equ 0911h ;# 
# 8703 "C:\Program Files (x86)\Microchip\xc8\v1.41\include\pic16f18313.h"
PMD1 equ 0912h ;# 
# 8741 "C:\Program Files (x86)\Microchip\xc8\v1.41\include\pic16f18313.h"
PMD2 equ 0913h ;# 
# 8774 "C:\Program Files (x86)\Microchip\xc8\v1.41\include\pic16f18313.h"
PMD3 equ 0914h ;# 
# 8818 "C:\Program Files (x86)\Microchip\xc8\v1.41\include\pic16f18313.h"
PMD4 equ 0915h ;# 
# 8845 "C:\Program Files (x86)\Microchip\xc8\v1.41\include\pic16f18313.h"
PMD5 equ 0916h ;# 
# 8876 "C:\Program Files (x86)\Microchip\xc8\v1.41\include\pic16f18313.h"
CPUDOZE equ 0918h ;# 
# 8940 "C:\Program Files (x86)\Microchip\xc8\v1.41\include\pic16f18313.h"
OSCCON1 equ 0919h ;# 
# 9009 "C:\Program Files (x86)\Microchip\xc8\v1.41\include\pic16f18313.h"
OSCCON2 equ 091Ah ;# 
# 9078 "C:\Program Files (x86)\Microchip\xc8\v1.41\include\pic16f18313.h"
OSCCON3 equ 091Bh ;# 
# 9122 "C:\Program Files (x86)\Microchip\xc8\v1.41\include\pic16f18313.h"
OSCSTAT1 equ 091Ch ;# 
# 9173 "C:\Program Files (x86)\Microchip\xc8\v1.41\include\pic16f18313.h"
OSCEN equ 091Dh ;# 
# 9218 "C:\Program Files (x86)\Microchip\xc8\v1.41\include\pic16f18313.h"
OSCTUNE equ 091Eh ;# 
# 9275 "C:\Program Files (x86)\Microchip\xc8\v1.41\include\pic16f18313.h"
OSCFRQ equ 091Fh ;# 
# 9320 "C:\Program Files (x86)\Microchip\xc8\v1.41\include\pic16f18313.h"
PPSLOCK equ 0E0Fh ;# 
# 9339 "C:\Program Files (x86)\Microchip\xc8\v1.41\include\pic16f18313.h"
INTPPS equ 0E10h ;# 
# 9390 "C:\Program Files (x86)\Microchip\xc8\v1.41\include\pic16f18313.h"
T0CKIPPS equ 0E11h ;# 
# 9441 "C:\Program Files (x86)\Microchip\xc8\v1.41\include\pic16f18313.h"
T1CKIPPS equ 0E12h ;# 
# 9492 "C:\Program Files (x86)\Microchip\xc8\v1.41\include\pic16f18313.h"
T1GPPS equ 0E13h ;# 
# 9543 "C:\Program Files (x86)\Microchip\xc8\v1.41\include\pic16f18313.h"
CCP1PPS equ 0E14h ;# 
# 9594 "C:\Program Files (x86)\Microchip\xc8\v1.41\include\pic16f18313.h"
CCP2PPS equ 0E15h ;# 
# 9645 "C:\Program Files (x86)\Microchip\xc8\v1.41\include\pic16f18313.h"
CWG1PPS equ 0E18h ;# 
# 9696 "C:\Program Files (x86)\Microchip\xc8\v1.41\include\pic16f18313.h"
MDCIN1PPS equ 0E1Ah ;# 
# 9747 "C:\Program Files (x86)\Microchip\xc8\v1.41\include\pic16f18313.h"
MDCIN2PPS equ 0E1Bh ;# 
# 9798 "C:\Program Files (x86)\Microchip\xc8\v1.41\include\pic16f18313.h"
MDMINPPS equ 0E1Ch ;# 
# 9849 "C:\Program Files (x86)\Microchip\xc8\v1.41\include\pic16f18313.h"
SSP1CLKPPS equ 0E20h ;# 
# 9900 "C:\Program Files (x86)\Microchip\xc8\v1.41\include\pic16f18313.h"
SSP1DATPPS equ 0E21h ;# 
# 9951 "C:\Program Files (x86)\Microchip\xc8\v1.41\include\pic16f18313.h"
SSP1SSPPS equ 0E22h ;# 
# 10002 "C:\Program Files (x86)\Microchip\xc8\v1.41\include\pic16f18313.h"
RXPPS equ 0E24h ;# 
# 10053 "C:\Program Files (x86)\Microchip\xc8\v1.41\include\pic16f18313.h"
TXPPS equ 0E25h ;# 
# 10104 "C:\Program Files (x86)\Microchip\xc8\v1.41\include\pic16f18313.h"
CLCIN0PPS equ 0E28h ;# 
# 10155 "C:\Program Files (x86)\Microchip\xc8\v1.41\include\pic16f18313.h"
CLCIN1PPS equ 0E29h ;# 
# 10206 "C:\Program Files (x86)\Microchip\xc8\v1.41\include\pic16f18313.h"
CLCIN2PPS equ 0E2Ah ;# 
# 10257 "C:\Program Files (x86)\Microchip\xc8\v1.41\include\pic16f18313.h"
CLCIN3PPS equ 0E2Bh ;# 
# 10308 "C:\Program Files (x86)\Microchip\xc8\v1.41\include\pic16f18313.h"
RA0PPS equ 0E90h ;# 
# 10359 "C:\Program Files (x86)\Microchip\xc8\v1.41\include\pic16f18313.h"
RA1PPS equ 0E91h ;# 
# 10410 "C:\Program Files (x86)\Microchip\xc8\v1.41\include\pic16f18313.h"
RA2PPS equ 0E92h ;# 
# 10461 "C:\Program Files (x86)\Microchip\xc8\v1.41\include\pic16f18313.h"
RA4PPS equ 0E94h ;# 
# 10512 "C:\Program Files (x86)\Microchip\xc8\v1.41\include\pic16f18313.h"
RA5PPS equ 0E95h ;# 
# 10563 "C:\Program Files (x86)\Microchip\xc8\v1.41\include\pic16f18313.h"
CLCDATA equ 0F0Fh ;# 
# 10588 "C:\Program Files (x86)\Microchip\xc8\v1.41\include\pic16f18313.h"
CLC1CON equ 0F10h ;# 
# 10705 "C:\Program Files (x86)\Microchip\xc8\v1.41\include\pic16f18313.h"
CLC1POL equ 0F11h ;# 
# 10782 "C:\Program Files (x86)\Microchip\xc8\v1.41\include\pic16f18313.h"
CLC1SEL0 equ 0F12h ;# 
# 10873 "C:\Program Files (x86)\Microchip\xc8\v1.41\include\pic16f18313.h"
CLC1SEL1 equ 0F13h ;# 
# 10964 "C:\Program Files (x86)\Microchip\xc8\v1.41\include\pic16f18313.h"
CLC1SEL2 equ 0F14h ;# 
# 11055 "C:\Program Files (x86)\Microchip\xc8\v1.41\include\pic16f18313.h"
CLC1SEL3 equ 0F15h ;# 
# 11146 "C:\Program Files (x86)\Microchip\xc8\v1.41\include\pic16f18313.h"
CLC1GLS0 equ 0F16h ;# 
# 11257 "C:\Program Files (x86)\Microchip\xc8\v1.41\include\pic16f18313.h"
CLC1GLS1 equ 0F17h ;# 
# 11368 "C:\Program Files (x86)\Microchip\xc8\v1.41\include\pic16f18313.h"
CLC1GLS2 equ 0F18h ;# 
# 11479 "C:\Program Files (x86)\Microchip\xc8\v1.41\include\pic16f18313.h"
CLC1GLS3 equ 0F19h ;# 
# 11590 "C:\Program Files (x86)\Microchip\xc8\v1.41\include\pic16f18313.h"
CLC2CON equ 0F1Ah ;# 
# 11707 "C:\Program Files (x86)\Microchip\xc8\v1.41\include\pic16f18313.h"
CLC2POL equ 0F1Bh ;# 
# 11784 "C:\Program Files (x86)\Microchip\xc8\v1.41\include\pic16f18313.h"
CLC2SEL0 equ 0F1Ch ;# 
# 11875 "C:\Program Files (x86)\Microchip\xc8\v1.41\include\pic16f18313.h"
CLC2SEL1 equ 0F1Dh ;# 
# 11966 "C:\Program Files (x86)\Microchip\xc8\v1.41\include\pic16f18313.h"
CLC2SEL2 equ 0F1Eh ;# 
# 12057 "C:\Program Files (x86)\Microchip\xc8\v1.41\include\pic16f18313.h"
CLC2SEL3 equ 0F1Fh ;# 
# 12148 "C:\Program Files (x86)\Microchip\xc8\v1.41\include\pic16f18313.h"
CLC2GLS0 equ 0F20h ;# 
# 12259 "C:\Program Files (x86)\Microchip\xc8\v1.41\include\pic16f18313.h"
CLC2GLS1 equ 0F21h ;# 
# 12370 "C:\Program Files (x86)\Microchip\xc8\v1.41\include\pic16f18313.h"
CLC2GLS2 equ 0F22h ;# 
# 12481 "C:\Program Files (x86)\Microchip\xc8\v1.41\include\pic16f18313.h"
CLC2GLS3 equ 0F23h ;# 
# 12592 "C:\Program Files (x86)\Microchip\xc8\v1.41\include\pic16f18313.h"
STATUS_SHAD equ 0FE4h ;# 
# 12623 "C:\Program Files (x86)\Microchip\xc8\v1.41\include\pic16f18313.h"
WREG_SHAD equ 0FE5h ;# 
# 12642 "C:\Program Files (x86)\Microchip\xc8\v1.41\include\pic16f18313.h"
BSR_SHAD equ 0FE6h ;# 
# 12661 "C:\Program Files (x86)\Microchip\xc8\v1.41\include\pic16f18313.h"
PCLATH_SHAD equ 0FE7h ;# 
# 12680 "C:\Program Files (x86)\Microchip\xc8\v1.41\include\pic16f18313.h"
FSR0L_SHAD equ 0FE8h ;# 
# 12699 "C:\Program Files (x86)\Microchip\xc8\v1.41\include\pic16f18313.h"
FSR0H_SHAD equ 0FE9h ;# 
# 12718 "C:\Program Files (x86)\Microchip\xc8\v1.41\include\pic16f18313.h"
FSR1L_SHAD equ 0FEAh ;# 
# 12737 "C:\Program Files (x86)\Microchip\xc8\v1.41\include\pic16f18313.h"
FSR1H_SHAD equ 0FEBh ;# 
# 12756 "C:\Program Files (x86)\Microchip\xc8\v1.41\include\pic16f18313.h"
STKPTR equ 0FEDh ;# 
# 12775 "C:\Program Files (x86)\Microchip\xc8\v1.41\include\pic16f18313.h"
TOSL equ 0FEEh ;# 
# 12794 "C:\Program Files (x86)\Microchip\xc8\v1.41\include\pic16f18313.h"
TOSH equ 0FEFh ;# 
# 51 "C:\Program Files (x86)\Microchip\xc8\v1.41\include\pic16f18313.h"
INDF0 equ 00h ;# 
# 70 "C:\Program Files (x86)\Microchip\xc8\v1.41\include\pic16f18313.h"
INDF1 equ 01h ;# 
# 89 "C:\Program Files (x86)\Microchip\xc8\v1.41\include\pic16f18313.h"
PCL equ 02h ;# 
# 108 "C:\Program Files (x86)\Microchip\xc8\v1.41\include\pic16f18313.h"
STATUS equ 03h ;# 
# 169 "C:\Program Files (x86)\Microchip\xc8\v1.41\include\pic16f18313.h"
FSR0L equ 04h ;# 
# 188 "C:\Program Files (x86)\Microchip\xc8\v1.41\include\pic16f18313.h"
FSR0H equ 05h ;# 
# 210 "C:\Program Files (x86)\Microchip\xc8\v1.41\include\pic16f18313.h"
FSR1L equ 06h ;# 
# 229 "C:\Program Files (x86)\Microchip\xc8\v1.41\include\pic16f18313.h"
FSR1H equ 07h ;# 
# 248 "C:\Program Files (x86)\Microchip\xc8\v1.41\include\pic16f18313.h"
BSR equ 08h ;# 
# 299 "C:\Program Files (x86)\Microchip\xc8\v1.41\include\pic16f18313.h"
WREG equ 09h ;# 
# 318 "C:\Program Files (x86)\Microchip\xc8\v1.41\include\pic16f18313.h"
PCLATH equ 0Ah ;# 
# 337 "C:\Program Files (x86)\Microchip\xc8\v1.41\include\pic16f18313.h"
INTCON equ 0Bh ;# 
# 369 "C:\Program Files (x86)\Microchip\xc8\v1.41\include\pic16f18313.h"
PORTA equ 0Ch ;# 
# 418 "C:\Program Files (x86)\Microchip\xc8\v1.41\include\pic16f18313.h"
PIR0 equ 010h ;# 
# 450 "C:\Program Files (x86)\Microchip\xc8\v1.41\include\pic16f18313.h"
PIR1 equ 011h ;# 
# 511 "C:\Program Files (x86)\Microchip\xc8\v1.41\include\pic16f18313.h"
PIR2 equ 012h ;# 
# 543 "C:\Program Files (x86)\Microchip\xc8\v1.41\include\pic16f18313.h"
PIR3 equ 013h ;# 
# 581 "C:\Program Files (x86)\Microchip\xc8\v1.41\include\pic16f18313.h"
PIR4 equ 014h ;# 
# 613 "C:\Program Files (x86)\Microchip\xc8\v1.41\include\pic16f18313.h"
TMR0L equ 015h ;# 
# 618 "C:\Program Files (x86)\Microchip\xc8\v1.41\include\pic16f18313.h"
TMR0 equ 015h ;# 
# 750 "C:\Program Files (x86)\Microchip\xc8\v1.41\include\pic16f18313.h"
TMR0H equ 016h ;# 
# 755 "C:\Program Files (x86)\Microchip\xc8\v1.41\include\pic16f18313.h"
PR0 equ 016h ;# 
# 1003 "C:\Program Files (x86)\Microchip\xc8\v1.41\include\pic16f18313.h"
T0CON0 equ 017h ;# 
# 1067 "C:\Program Files (x86)\Microchip\xc8\v1.41\include\pic16f18313.h"
T0CON1 equ 018h ;# 
# 1143 "C:\Program Files (x86)\Microchip\xc8\v1.41\include\pic16f18313.h"
TMR1 equ 019h ;# 
# 1149 "C:\Program Files (x86)\Microchip\xc8\v1.41\include\pic16f18313.h"
TMR1L equ 019h ;# 
# 1168 "C:\Program Files (x86)\Microchip\xc8\v1.41\include\pic16f18313.h"
TMR1H equ 01Ah ;# 
# 1187 "C:\Program Files (x86)\Microchip\xc8\v1.41\include\pic16f18313.h"
T1CON equ 01Bh ;# 
# 1258 "C:\Program Files (x86)\Microchip\xc8\v1.41\include\pic16f18313.h"
T1GCON equ 01Ch ;# 
# 1327 "C:\Program Files (x86)\Microchip\xc8\v1.41\include\pic16f18313.h"
TMR2 equ 01Dh ;# 
# 1346 "C:\Program Files (x86)\Microchip\xc8\v1.41\include\pic16f18313.h"
PR2 equ 01Eh ;# 
# 1365 "C:\Program Files (x86)\Microchip\xc8\v1.41\include\pic16f18313.h"
T2CON equ 01Fh ;# 
# 1435 "C:\Program Files (x86)\Microchip\xc8\v1.41\include\pic16f18313.h"
TRISA equ 08Ch ;# 
# 1479 "C:\Program Files (x86)\Microchip\xc8\v1.41\include\pic16f18313.h"
PIE0 equ 090h ;# 
# 1511 "C:\Program Files (x86)\Microchip\xc8\v1.41\include\pic16f18313.h"
PIE1 equ 091h ;# 
# 1572 "C:\Program Files (x86)\Microchip\xc8\v1.41\include\pic16f18313.h"
PIE2 equ 092h ;# 
# 1604 "C:\Program Files (x86)\Microchip\xc8\v1.41\include\pic16f18313.h"
PIE3 equ 093h ;# 
# 1642 "C:\Program Files (x86)\Microchip\xc8\v1.41\include\pic16f18313.h"
PIE4 equ 094h ;# 
# 1674 "C:\Program Files (x86)\Microchip\xc8\v1.41\include\pic16f18313.h"
WDTCON equ 097h ;# 
# 1732 "C:\Program Files (x86)\Microchip\xc8\v1.41\include\pic16f18313.h"
ADRES equ 09Bh ;# 
# 1738 "C:\Program Files (x86)\Microchip\xc8\v1.41\include\pic16f18313.h"
ADRESL equ 09Bh ;# 
# 1757 "C:\Program Files (x86)\Microchip\xc8\v1.41\include\pic16f18313.h"
ADRESH equ 09Ch ;# 
# 1776 "C:\Program Files (x86)\Microchip\xc8\v1.41\include\pic16f18313.h"
ADCON0 equ 09Dh ;# 
# 1861 "C:\Program Files (x86)\Microchip\xc8\v1.41\include\pic16f18313.h"
ADCON1 equ 09Eh ;# 
# 1932 "C:\Program Files (x86)\Microchip\xc8\v1.41\include\pic16f18313.h"
ADACT equ 09Fh ;# 
# 1977 "C:\Program Files (x86)\Microchip\xc8\v1.41\include\pic16f18313.h"
LATA equ 010Ch ;# 
# 2021 "C:\Program Files (x86)\Microchip\xc8\v1.41\include\pic16f18313.h"
CM1CON0 equ 0111h ;# 
# 2072 "C:\Program Files (x86)\Microchip\xc8\v1.41\include\pic16f18313.h"
CM1CON1 equ 0112h ;# 
# 2147 "C:\Program Files (x86)\Microchip\xc8\v1.41\include\pic16f18313.h"
CMOUT equ 0115h ;# 
# 2166 "C:\Program Files (x86)\Microchip\xc8\v1.41\include\pic16f18313.h"
BORCON equ 0116h ;# 
# 2192 "C:\Program Files (x86)\Microchip\xc8\v1.41\include\pic16f18313.h"
FVRCON equ 0117h ;# 
# 2267 "C:\Program Files (x86)\Microchip\xc8\v1.41\include\pic16f18313.h"
DACCON0 equ 0118h ;# 
# 2322 "C:\Program Files (x86)\Microchip\xc8\v1.41\include\pic16f18313.h"
DACCON1 equ 0119h ;# 
# 2373 "C:\Program Files (x86)\Microchip\xc8\v1.41\include\pic16f18313.h"
ANSELA equ 018Ch ;# 
# 2417 "C:\Program Files (x86)\Microchip\xc8\v1.41\include\pic16f18313.h"
VREGCON equ 0197h ;# 
# 2437 "C:\Program Files (x86)\Microchip\xc8\v1.41\include\pic16f18313.h"
RC1REG equ 0199h ;# 
# 2442 "C:\Program Files (x86)\Microchip\xc8\v1.41\include\pic16f18313.h"
RCREG equ 0199h ;# 
# 2446 "C:\Program Files (x86)\Microchip\xc8\v1.41\include\pic16f18313.h"
RCREG1 equ 0199h ;# 
# 2490 "C:\Program Files (x86)\Microchip\xc8\v1.41\include\pic16f18313.h"
TX1REG equ 019Ah ;# 
# 2495 "C:\Program Files (x86)\Microchip\xc8\v1.41\include\pic16f18313.h"
TXREG1 equ 019Ah ;# 
# 2499 "C:\Program Files (x86)\Microchip\xc8\v1.41\include\pic16f18313.h"
TXREG equ 019Ah ;# 
# 2543 "C:\Program Files (x86)\Microchip\xc8\v1.41\include\pic16f18313.h"
SP1BRG equ 019Bh ;# 
# 2549 "C:\Program Files (x86)\Microchip\xc8\v1.41\include\pic16f18313.h"
SP1BRGL equ 019Bh ;# 
# 2554 "C:\Program Files (x86)\Microchip\xc8\v1.41\include\pic16f18313.h"
SPBRG equ 019Bh ;# 
# 2558 "C:\Program Files (x86)\Microchip\xc8\v1.41\include\pic16f18313.h"
SPBRG1 equ 019Bh ;# 
# 2562 "C:\Program Files (x86)\Microchip\xc8\v1.41\include\pic16f18313.h"
SPBRGL equ 019Bh ;# 
# 2618 "C:\Program Files (x86)\Microchip\xc8\v1.41\include\pic16f18313.h"
SP1BRGH equ 019Ch ;# 
# 2623 "C:\Program Files (x86)\Microchip\xc8\v1.41\include\pic16f18313.h"
SPBRGH equ 019Ch ;# 
# 2627 "C:\Program Files (x86)\Microchip\xc8\v1.41\include\pic16f18313.h"
SPBRGH1 equ 019Ch ;# 
# 2671 "C:\Program Files (x86)\Microchip\xc8\v1.41\include\pic16f18313.h"
RC1STA equ 019Dh ;# 
# 2676 "C:\Program Files (x86)\Microchip\xc8\v1.41\include\pic16f18313.h"
RCSTA1 equ 019Dh ;# 
# 2680 "C:\Program Files (x86)\Microchip\xc8\v1.41\include\pic16f18313.h"
RCSTA equ 019Dh ;# 
# 2850 "C:\Program Files (x86)\Microchip\xc8\v1.41\include\pic16f18313.h"
TX1STA equ 019Eh ;# 
# 2855 "C:\Program Files (x86)\Microchip\xc8\v1.41\include\pic16f18313.h"
TXSTA1 equ 019Eh ;# 
# 2859 "C:\Program Files (x86)\Microchip\xc8\v1.41\include\pic16f18313.h"
TXSTA equ 019Eh ;# 
# 3029 "C:\Program Files (x86)\Microchip\xc8\v1.41\include\pic16f18313.h"
BAUD1CON equ 019Fh ;# 
# 3034 "C:\Program Files (x86)\Microchip\xc8\v1.41\include\pic16f18313.h"
BAUDCON1 equ 019Fh ;# 
# 3038 "C:\Program Files (x86)\Microchip\xc8\v1.41\include\pic16f18313.h"
BAUDCTL1 equ 019Fh ;# 
# 3042 "C:\Program Files (x86)\Microchip\xc8\v1.41\include\pic16f18313.h"
BAUDCON equ 019Fh ;# 
# 3046 "C:\Program Files (x86)\Microchip\xc8\v1.41\include\pic16f18313.h"
BAUDCTL equ 019Fh ;# 
# 3274 "C:\Program Files (x86)\Microchip\xc8\v1.41\include\pic16f18313.h"
WPUA equ 020Ch ;# 
# 3323 "C:\Program Files (x86)\Microchip\xc8\v1.41\include\pic16f18313.h"
SSP1BUF equ 0211h ;# 
# 3328 "C:\Program Files (x86)\Microchip\xc8\v1.41\include\pic16f18313.h"
SSPBUF equ 0211h ;# 
# 3576 "C:\Program Files (x86)\Microchip\xc8\v1.41\include\pic16f18313.h"
SSP1ADD equ 0212h ;# 
# 3581 "C:\Program Files (x86)\Microchip\xc8\v1.41\include\pic16f18313.h"
SSPADD equ 0212h ;# 
# 3829 "C:\Program Files (x86)\Microchip\xc8\v1.41\include\pic16f18313.h"
SSP1MSK equ 0213h ;# 
# 3834 "C:\Program Files (x86)\Microchip\xc8\v1.41\include\pic16f18313.h"
SSPMSK equ 0213h ;# 
# 4082 "C:\Program Files (x86)\Microchip\xc8\v1.41\include\pic16f18313.h"
SSP1STAT equ 0214h ;# 
# 4087 "C:\Program Files (x86)\Microchip\xc8\v1.41\include\pic16f18313.h"
SSPSTAT equ 0214h ;# 
# 4203 "C:\Program Files (x86)\Microchip\xc8\v1.41\include\pic16f18313.h"
SSP1CON1 equ 0215h ;# 
# 4208 "C:\Program Files (x86)\Microchip\xc8\v1.41\include\pic16f18313.h"
SSPCON equ 0215h ;# 
# 4212 "C:\Program Files (x86)\Microchip\xc8\v1.41\include\pic16f18313.h"
SSPCON1 equ 0215h ;# 
# 4216 "C:\Program Files (x86)\Microchip\xc8\v1.41\include\pic16f18313.h"
SSP1CON equ 0215h ;# 
# 4472 "C:\Program Files (x86)\Microchip\xc8\v1.41\include\pic16f18313.h"
SSP1CON2 equ 0216h ;# 
# 4477 "C:\Program Files (x86)\Microchip\xc8\v1.41\include\pic16f18313.h"
SSPCON2 equ 0216h ;# 
# 4593 "C:\Program Files (x86)\Microchip\xc8\v1.41\include\pic16f18313.h"
SSP1CON3 equ 0217h ;# 
# 4598 "C:\Program Files (x86)\Microchip\xc8\v1.41\include\pic16f18313.h"
SSPCON3 equ 0217h ;# 
# 4714 "C:\Program Files (x86)\Microchip\xc8\v1.41\include\pic16f18313.h"
ODCONA equ 028Ch ;# 
# 4758 "C:\Program Files (x86)\Microchip\xc8\v1.41\include\pic16f18313.h"
CCPR1 equ 0291h ;# 
# 4764 "C:\Program Files (x86)\Microchip\xc8\v1.41\include\pic16f18313.h"
CCPR1L equ 0291h ;# 
# 4783 "C:\Program Files (x86)\Microchip\xc8\v1.41\include\pic16f18313.h"
CCPR1H equ 0292h ;# 
# 4802 "C:\Program Files (x86)\Microchip\xc8\v1.41\include\pic16f18313.h"
CCP1CON equ 0293h ;# 
# 4866 "C:\Program Files (x86)\Microchip\xc8\v1.41\include\pic16f18313.h"
CCP1CAP equ 0294h ;# 
# 4905 "C:\Program Files (x86)\Microchip\xc8\v1.41\include\pic16f18313.h"
CCPR2 equ 0295h ;# 
# 4911 "C:\Program Files (x86)\Microchip\xc8\v1.41\include\pic16f18313.h"
CCPR2L equ 0295h ;# 
# 4930 "C:\Program Files (x86)\Microchip\xc8\v1.41\include\pic16f18313.h"
CCPR2H equ 0296h ;# 
# 4949 "C:\Program Files (x86)\Microchip\xc8\v1.41\include\pic16f18313.h"
CCP2CON equ 0297h ;# 
# 5013 "C:\Program Files (x86)\Microchip\xc8\v1.41\include\pic16f18313.h"
CCP2CAP equ 0298h ;# 
# 5052 "C:\Program Files (x86)\Microchip\xc8\v1.41\include\pic16f18313.h"
SLRCONA equ 030Ch ;# 
# 5096 "C:\Program Files (x86)\Microchip\xc8\v1.41\include\pic16f18313.h"
INLVLA equ 038Ch ;# 
# 5145 "C:\Program Files (x86)\Microchip\xc8\v1.41\include\pic16f18313.h"
IOCAP equ 0391h ;# 
# 5194 "C:\Program Files (x86)\Microchip\xc8\v1.41\include\pic16f18313.h"
IOCAN equ 0392h ;# 
# 5243 "C:\Program Files (x86)\Microchip\xc8\v1.41\include\pic16f18313.h"
IOCAF equ 0393h ;# 
# 5292 "C:\Program Files (x86)\Microchip\xc8\v1.41\include\pic16f18313.h"
CLKRCON equ 039Ah ;# 
# 5356 "C:\Program Files (x86)\Microchip\xc8\v1.41\include\pic16f18313.h"
MDCON equ 039Ch ;# 
# 5395 "C:\Program Files (x86)\Microchip\xc8\v1.41\include\pic16f18313.h"
MDSRC equ 039Dh ;# 
# 5440 "C:\Program Files (x86)\Microchip\xc8\v1.41\include\pic16f18313.h"
MDCARH equ 039Eh ;# 
# 5498 "C:\Program Files (x86)\Microchip\xc8\v1.41\include\pic16f18313.h"
MDCARL equ 039Fh ;# 
# 5558 "C:\Program Files (x86)\Microchip\xc8\v1.41\include\pic16f18313.h"
NCO1ACC equ 0498h ;# 
# 5564 "C:\Program Files (x86)\Microchip\xc8\v1.41\include\pic16f18313.h"
NCO1ACCL equ 0498h ;# 
# 5583 "C:\Program Files (x86)\Microchip\xc8\v1.41\include\pic16f18313.h"
NCO1ACCH equ 0499h ;# 
# 5602 "C:\Program Files (x86)\Microchip\xc8\v1.41\include\pic16f18313.h"
NCO1ACCU equ 049Ah ;# 
# 5623 "C:\Program Files (x86)\Microchip\xc8\v1.41\include\pic16f18313.h"
NCO1INC equ 049Bh ;# 
# 5629 "C:\Program Files (x86)\Microchip\xc8\v1.41\include\pic16f18313.h"
NCO1INCL equ 049Bh ;# 
# 5648 "C:\Program Files (x86)\Microchip\xc8\v1.41\include\pic16f18313.h"
NCO1INCH equ 049Ch ;# 
# 5667 "C:\Program Files (x86)\Microchip\xc8\v1.41\include\pic16f18313.h"
NCO1INCU equ 049Dh ;# 
# 5686 "C:\Program Files (x86)\Microchip\xc8\v1.41\include\pic16f18313.h"
NCO1CON equ 049Eh ;# 
# 5725 "C:\Program Files (x86)\Microchip\xc8\v1.41\include\pic16f18313.h"
NCO1CLK equ 049Fh ;# 
# 5751 "C:\Program Files (x86)\Microchip\xc8\v1.41\include\pic16f18313.h"
PWM5DCL equ 0617h ;# 
# 5786 "C:\Program Files (x86)\Microchip\xc8\v1.41\include\pic16f18313.h"
PWM5DCH equ 0618h ;# 
# 5855 "C:\Program Files (x86)\Microchip\xc8\v1.41\include\pic16f18313.h"
PWM5CON equ 0619h ;# 
# 5860 "C:\Program Files (x86)\Microchip\xc8\v1.41\include\pic16f18313.h"
PWM5CON0 equ 0619h ;# 
# 5920 "C:\Program Files (x86)\Microchip\xc8\v1.41\include\pic16f18313.h"
PWM6DCL equ 061Ah ;# 
# 5955 "C:\Program Files (x86)\Microchip\xc8\v1.41\include\pic16f18313.h"
PWM6DCH equ 061Bh ;# 
# 6024 "C:\Program Files (x86)\Microchip\xc8\v1.41\include\pic16f18313.h"
PWM6CON equ 061Ch ;# 
# 6029 "C:\Program Files (x86)\Microchip\xc8\v1.41\include\pic16f18313.h"
PWM6CON0 equ 061Ch ;# 
# 6089 "C:\Program Files (x86)\Microchip\xc8\v1.41\include\pic16f18313.h"
CWG1CLKCON equ 0691h ;# 
# 6116 "C:\Program Files (x86)\Microchip\xc8\v1.41\include\pic16f18313.h"
CWG1DAT equ 0692h ;# 
# 6161 "C:\Program Files (x86)\Microchip\xc8\v1.41\include\pic16f18313.h"
CWG1DBR equ 0693h ;# 
# 6264 "C:\Program Files (x86)\Microchip\xc8\v1.41\include\pic16f18313.h"
CWG1DBF equ 0694h ;# 
# 6367 "C:\Program Files (x86)\Microchip\xc8\v1.41\include\pic16f18313.h"
CWG1CON0 equ 0695h ;# 
# 6467 "C:\Program Files (x86)\Microchip\xc8\v1.41\include\pic16f18313.h"
CWG1CON1 equ 0696h ;# 
# 6544 "C:\Program Files (x86)\Microchip\xc8\v1.41\include\pic16f18313.h"
CWG1AS0 equ 0697h ;# 
# 6663 "C:\Program Files (x86)\Microchip\xc8\v1.41\include\pic16f18313.h"
CWG1AS1 equ 0698h ;# 
# 6695 "C:\Program Files (x86)\Microchip\xc8\v1.41\include\pic16f18313.h"
CWG1STR equ 0699h ;# 
# 6806 "C:\Program Files (x86)\Microchip\xc8\v1.41\include\pic16f18313.h"
NVMADR equ 0891h ;# 
# 6811 "C:\Program Files (x86)\Microchip\xc8\v1.41\include\pic16f18313.h"
EEADR equ 0891h ;# 
# 6815 "C:\Program Files (x86)\Microchip\xc8\v1.41\include\pic16f18313.h"
PMADR equ 0891h ;# 
# 6821 "C:\Program Files (x86)\Microchip\xc8\v1.41\include\pic16f18313.h"
NVMADRL equ 0891h ;# 
# 6826 "C:\Program Files (x86)\Microchip\xc8\v1.41\include\pic16f18313.h"
EEADRL equ 0891h ;# 
# 6830 "C:\Program Files (x86)\Microchip\xc8\v1.41\include\pic16f18313.h"
PMADRL equ 0891h ;# 
# 7222 "C:\Program Files (x86)\Microchip\xc8\v1.41\include\pic16f18313.h"
NVMADRH equ 0892h ;# 
# 7227 "C:\Program Files (x86)\Microchip\xc8\v1.41\include\pic16f18313.h"
EEADRH equ 0892h ;# 
# 7231 "C:\Program Files (x86)\Microchip\xc8\v1.41\include\pic16f18313.h"
PMADRH equ 0892h ;# 
# 7569 "C:\Program Files (x86)\Microchip\xc8\v1.41\include\pic16f18313.h"
NVMDAT equ 0893h ;# 
# 7574 "C:\Program Files (x86)\Microchip\xc8\v1.41\include\pic16f18313.h"
EEDAT equ 0893h ;# 
# 7578 "C:\Program Files (x86)\Microchip\xc8\v1.41\include\pic16f18313.h"
PMDAT equ 0893h ;# 
# 7584 "C:\Program Files (x86)\Microchip\xc8\v1.41\include\pic16f18313.h"
NVMDATL equ 0893h ;# 
# 7589 "C:\Program Files (x86)\Microchip\xc8\v1.41\include\pic16f18313.h"
EEDATL equ 0893h ;# 
# 7593 "C:\Program Files (x86)\Microchip\xc8\v1.41\include\pic16f18313.h"
PMDATL equ 0893h ;# 
# 7985 "C:\Program Files (x86)\Microchip\xc8\v1.41\include\pic16f18313.h"
NVMDATH equ 0894h ;# 
# 7990 "C:\Program Files (x86)\Microchip\xc8\v1.41\include\pic16f18313.h"
EEDATH equ 0894h ;# 
# 7994 "C:\Program Files (x86)\Microchip\xc8\v1.41\include\pic16f18313.h"
PMDATH equ 0894h ;# 
# 8314 "C:\Program Files (x86)\Microchip\xc8\v1.41\include\pic16f18313.h"
NVMCON1 equ 0895h ;# 
# 8319 "C:\Program Files (x86)\Microchip\xc8\v1.41\include\pic16f18313.h"
EECON1 equ 0895h ;# 
# 8323 "C:\Program Files (x86)\Microchip\xc8\v1.41\include\pic16f18313.h"
PMCON1 equ 0895h ;# 
# 8502 "C:\Program Files (x86)\Microchip\xc8\v1.41\include\pic16f18313.h"
NVMCON2 equ 0896h ;# 
# 8507 "C:\Program Files (x86)\Microchip\xc8\v1.41\include\pic16f18313.h"
EECON2 equ 0896h ;# 
# 8511 "C:\Program Files (x86)\Microchip\xc8\v1.41\include\pic16f18313.h"
PMCON2 equ 0896h ;# 
# 8603 "C:\Program Files (x86)\Microchip\xc8\v1.41\include\pic16f18313.h"
PCON0 equ 089Bh ;# 
# 8659 "C:\Program Files (x86)\Microchip\xc8\v1.41\include\pic16f18313.h"
PMD0 equ 0911h ;# 
# 8703 "C:\Program Files (x86)\Microchip\xc8\v1.41\include\pic16f18313.h"
PMD1 equ 0912h ;# 
# 8741 "C:\Program Files (x86)\Microchip\xc8\v1.41\include\pic16f18313.h"
PMD2 equ 0913h ;# 
# 8774 "C:\Program Files (x86)\Microchip\xc8\v1.41\include\pic16f18313.h"
PMD3 equ 0914h ;# 
# 8818 "C:\Program Files (x86)\Microchip\xc8\v1.41\include\pic16f18313.h"
PMD4 equ 0915h ;# 
# 8845 "C:\Program Files (x86)\Microchip\xc8\v1.41\include\pic16f18313.h"
PMD5 equ 0916h ;# 
# 8876 "C:\Program Files (x86)\Microchip\xc8\v1.41\include\pic16f18313.h"
CPUDOZE equ 0918h ;# 
# 8940 "C:\Program Files (x86)\Microchip\xc8\v1.41\include\pic16f18313.h"
OSCCON1 equ 0919h ;# 
# 9009 "C:\Program Files (x86)\Microchip\xc8\v1.41\include\pic16f18313.h"
OSCCON2 equ 091Ah ;# 
# 9078 "C:\Program Files (x86)\Microchip\xc8\v1.41\include\pic16f18313.h"
OSCCON3 equ 091Bh ;# 
# 9122 "C:\Program Files (x86)\Microchip\xc8\v1.41\include\pic16f18313.h"
OSCSTAT1 equ 091Ch ;# 
# 9173 "C:\Program Files (x86)\Microchip\xc8\v1.41\include\pic16f18313.h"
OSCEN equ 091Dh ;# 
# 9218 "C:\Program Files (x86)\Microchip\xc8\v1.41\include\pic16f18313.h"
OSCTUNE equ 091Eh ;# 
# 9275 "C:\Program Files (x86)\Microchip\xc8\v1.41\include\pic16f18313.h"
OSCFRQ equ 091Fh ;# 
# 9320 "C:\Program Files (x86)\Microchip\xc8\v1.41\include\pic16f18313.h"
PPSLOCK equ 0E0Fh ;# 
# 9339 "C:\Program Files (x86)\Microchip\xc8\v1.41\include\pic16f18313.h"
INTPPS equ 0E10h ;# 
# 9390 "C:\Program Files (x86)\Microchip\xc8\v1.41\include\pic16f18313.h"
T0CKIPPS equ 0E11h ;# 
# 9441 "C:\Program Files (x86)\Microchip\xc8\v1.41\include\pic16f18313.h"
T1CKIPPS equ 0E12h ;# 
# 9492 "C:\Program Files (x86)\Microchip\xc8\v1.41\include\pic16f18313.h"
T1GPPS equ 0E13h ;# 
# 9543 "C:\Program Files (x86)\Microchip\xc8\v1.41\include\pic16f18313.h"
CCP1PPS equ 0E14h ;# 
# 9594 "C:\Program Files (x86)\Microchip\xc8\v1.41\include\pic16f18313.h"
CCP2PPS equ 0E15h ;# 
# 9645 "C:\Program Files (x86)\Microchip\xc8\v1.41\include\pic16f18313.h"
CWG1PPS equ 0E18h ;# 
# 9696 "C:\Program Files (x86)\Microchip\xc8\v1.41\include\pic16f18313.h"
MDCIN1PPS equ 0E1Ah ;# 
# 9747 "C:\Program Files (x86)\Microchip\xc8\v1.41\include\pic16f18313.h"
MDCIN2PPS equ 0E1Bh ;# 
# 9798 "C:\Program Files (x86)\Microchip\xc8\v1.41\include\pic16f18313.h"
MDMINPPS equ 0E1Ch ;# 
# 9849 "C:\Program Files (x86)\Microchip\xc8\v1.41\include\pic16f18313.h"
SSP1CLKPPS equ 0E20h ;# 
# 9900 "C:\Program Files (x86)\Microchip\xc8\v1.41\include\pic16f18313.h"
SSP1DATPPS equ 0E21h ;# 
# 9951 "C:\Program Files (x86)\Microchip\xc8\v1.41\include\pic16f18313.h"
SSP1SSPPS equ 0E22h ;# 
# 10002 "C:\Program Files (x86)\Microchip\xc8\v1.41\include\pic16f18313.h"
RXPPS equ 0E24h ;# 
# 10053 "C:\Program Files (x86)\Microchip\xc8\v1.41\include\pic16f18313.h"
TXPPS equ 0E25h ;# 
# 10104 "C:\Program Files (x86)\Microchip\xc8\v1.41\include\pic16f18313.h"
CLCIN0PPS equ 0E28h ;# 
# 10155 "C:\Program Files (x86)\Microchip\xc8\v1.41\include\pic16f18313.h"
CLCIN1PPS equ 0E29h ;# 
# 10206 "C:\Program Files (x86)\Microchip\xc8\v1.41\include\pic16f18313.h"
CLCIN2PPS equ 0E2Ah ;# 
# 10257 "C:\Program Files (x86)\Microchip\xc8\v1.41\include\pic16f18313.h"
CLCIN3PPS equ 0E2Bh ;# 
# 10308 "C:\Program Files (x86)\Microchip\xc8\v1.41\include\pic16f18313.h"
RA0PPS equ 0E90h ;# 
# 10359 "C:\Program Files (x86)\Microchip\xc8\v1.41\include\pic16f18313.h"
RA1PPS equ 0E91h ;# 
# 10410 "C:\Program Files (x86)\Microchip\xc8\v1.41\include\pic16f18313.h"
RA2PPS equ 0E92h ;# 
# 10461 "C:\Program Files (x86)\Microchip\xc8\v1.41\include\pic16f18313.h"
RA4PPS equ 0E94h ;# 
# 10512 "C:\Program Files (x86)\Microchip\xc8\v1.41\include\pic16f18313.h"
RA5PPS equ 0E95h ;# 
# 10563 "C:\Program Files (x86)\Microchip\xc8\v1.41\include\pic16f18313.h"
CLCDATA equ 0F0Fh ;# 
# 10588 "C:\Program Files (x86)\Microchip\xc8\v1.41\include\pic16f18313.h"
CLC1CON equ 0F10h ;# 
# 10705 "C:\Program Files (x86)\Microchip\xc8\v1.41\include\pic16f18313.h"
CLC1POL equ 0F11h ;# 
# 10782 "C:\Program Files (x86)\Microchip\xc8\v1.41\include\pic16f18313.h"
CLC1SEL0 equ 0F12h ;# 
# 10873 "C:\Program Files (x86)\Microchip\xc8\v1.41\include\pic16f18313.h"
CLC1SEL1 equ 0F13h ;# 
# 10964 "C:\Program Files (x86)\Microchip\xc8\v1.41\include\pic16f18313.h"
CLC1SEL2 equ 0F14h ;# 
# 11055 "C:\Program Files (x86)\Microchip\xc8\v1.41\include\pic16f18313.h"
CLC1SEL3 equ 0F15h ;# 
# 11146 "C:\Program Files (x86)\Microchip\xc8\v1.41\include\pic16f18313.h"
CLC1GLS0 equ 0F16h ;# 
# 11257 "C:\Program Files (x86)\Microchip\xc8\v1.41\include\pic16f18313.h"
CLC1GLS1 equ 0F17h ;# 
# 11368 "C:\Program Files (x86)\Microchip\xc8\v1.41\include\pic16f18313.h"
CLC1GLS2 equ 0F18h ;# 
# 11479 "C:\Program Files (x86)\Microchip\xc8\v1.41\include\pic16f18313.h"
CLC1GLS3 equ 0F19h ;# 
# 11590 "C:\Program Files (x86)\Microchip\xc8\v1.41\include\pic16f18313.h"
CLC2CON equ 0F1Ah ;# 
# 11707 "C:\Program Files (x86)\Microchip\xc8\v1.41\include\pic16f18313.h"
CLC2POL equ 0F1Bh ;# 
# 11784 "C:\Program Files (x86)\Microchip\xc8\v1.41\include\pic16f18313.h"
CLC2SEL0 equ 0F1Ch ;# 
# 11875 "C:\Program Files (x86)\Microchip\xc8\v1.41\include\pic16f18313.h"
CLC2SEL1 equ 0F1Dh ;# 
# 11966 "C:\Program Files (x86)\Microchip\xc8\v1.41\include\pic16f18313.h"
CLC2SEL2 equ 0F1Eh ;# 
# 12057 "C:\Program Files (x86)\Microchip\xc8\v1.41\include\pic16f18313.h"
CLC2SEL3 equ 0F1Fh ;# 
# 12148 "C:\Program Files (x86)\Microchip\xc8\v1.41\include\pic16f18313.h"
CLC2GLS0 equ 0F20h ;# 
# 12259 "C:\Program Files (x86)\Microchip\xc8\v1.41\include\pic16f18313.h"
CLC2GLS1 equ 0F21h ;# 
# 12370 "C:\Program Files (x86)\Microchip\xc8\v1.41\include\pic16f18313.h"
CLC2GLS2 equ 0F22h ;# 
# 12481 "C:\Program Files (x86)\Microchip\xc8\v1.41\include\pic16f18313.h"
CLC2GLS3 equ 0F23h ;# 
# 12592 "C:\Program Files (x86)\Microchip\xc8\v1.41\include\pic16f18313.h"
STATUS_SHAD equ 0FE4h ;# 
# 12623 "C:\Program Files (x86)\Microchip\xc8\v1.41\include\pic16f18313.h"
WREG_SHAD equ 0FE5h ;# 
# 12642 "C:\Program Files (x86)\Microchip\xc8\v1.41\include\pic16f18313.h"
BSR_SHAD equ 0FE6h ;# 
# 12661 "C:\Program Files (x86)\Microchip\xc8\v1.41\include\pic16f18313.h"
PCLATH_SHAD equ 0FE7h ;# 
# 12680 "C:\Program Files (x86)\Microchip\xc8\v1.41\include\pic16f18313.h"
FSR0L_SHAD equ 0FE8h ;# 
# 12699 "C:\Program Files (x86)\Microchip\xc8\v1.41\include\pic16f18313.h"
FSR0H_SHAD equ 0FE9h ;# 
# 12718 "C:\Program Files (x86)\Microchip\xc8\v1.41\include\pic16f18313.h"
FSR1L_SHAD equ 0FEAh ;# 
# 12737 "C:\Program Files (x86)\Microchip\xc8\v1.41\include\pic16f18313.h"
FSR1H_SHAD equ 0FEBh ;# 
# 12756 "C:\Program Files (x86)\Microchip\xc8\v1.41\include\pic16f18313.h"
STKPTR equ 0FEDh ;# 
# 12775 "C:\Program Files (x86)\Microchip\xc8\v1.41\include\pic16f18313.h"
TOSL equ 0FEEh ;# 
# 12794 "C:\Program Files (x86)\Microchip\xc8\v1.41\include\pic16f18313.h"
TOSH equ 0FEFh ;# 
# 51 "C:\Program Files (x86)\Microchip\xc8\v1.41\include\pic16f18313.h"
INDF0 equ 00h ;# 
# 70 "C:\Program Files (x86)\Microchip\xc8\v1.41\include\pic16f18313.h"
INDF1 equ 01h ;# 
# 89 "C:\Program Files (x86)\Microchip\xc8\v1.41\include\pic16f18313.h"
PCL equ 02h ;# 
# 108 "C:\Program Files (x86)\Microchip\xc8\v1.41\include\pic16f18313.h"
STATUS equ 03h ;# 
# 169 "C:\Program Files (x86)\Microchip\xc8\v1.41\include\pic16f18313.h"
FSR0L equ 04h ;# 
# 188 "C:\Program Files (x86)\Microchip\xc8\v1.41\include\pic16f18313.h"
FSR0H equ 05h ;# 
# 210 "C:\Program Files (x86)\Microchip\xc8\v1.41\include\pic16f18313.h"
FSR1L equ 06h ;# 
# 229 "C:\Program Files (x86)\Microchip\xc8\v1.41\include\pic16f18313.h"
FSR1H equ 07h ;# 
# 248 "C:\Program Files (x86)\Microchip\xc8\v1.41\include\pic16f18313.h"
BSR equ 08h ;# 
# 299 "C:\Program Files (x86)\Microchip\xc8\v1.41\include\pic16f18313.h"
WREG equ 09h ;# 
# 318 "C:\Program Files (x86)\Microchip\xc8\v1.41\include\pic16f18313.h"
PCLATH equ 0Ah ;# 
# 337 "C:\Program Files (x86)\Microchip\xc8\v1.41\include\pic16f18313.h"
INTCON equ 0Bh ;# 
# 369 "C:\Program Files (x86)\Microchip\xc8\v1.41\include\pic16f18313.h"
PORTA equ 0Ch ;# 
# 418 "C:\Program Files (x86)\Microchip\xc8\v1.41\include\pic16f18313.h"
PIR0 equ 010h ;# 
# 450 "C:\Program Files (x86)\Microchip\xc8\v1.41\include\pic16f18313.h"
PIR1 equ 011h ;# 
# 511 "C:\Program Files (x86)\Microchip\xc8\v1.41\include\pic16f18313.h"
PIR2 equ 012h ;# 
# 543 "C:\Program Files (x86)\Microchip\xc8\v1.41\include\pic16f18313.h"
PIR3 equ 013h ;# 
# 581 "C:\Program Files (x86)\Microchip\xc8\v1.41\include\pic16f18313.h"
PIR4 equ 014h ;# 
# 613 "C:\Program Files (x86)\Microchip\xc8\v1.41\include\pic16f18313.h"
TMR0L equ 015h ;# 
# 618 "C:\Program Files (x86)\Microchip\xc8\v1.41\include\pic16f18313.h"
TMR0 equ 015h ;# 
# 750 "C:\Program Files (x86)\Microchip\xc8\v1.41\include\pic16f18313.h"
TMR0H equ 016h ;# 
# 755 "C:\Program Files (x86)\Microchip\xc8\v1.41\include\pic16f18313.h"
PR0 equ 016h ;# 
# 1003 "C:\Program Files (x86)\Microchip\xc8\v1.41\include\pic16f18313.h"
T0CON0 equ 017h ;# 
# 1067 "C:\Program Files (x86)\Microchip\xc8\v1.41\include\pic16f18313.h"
T0CON1 equ 018h ;# 
# 1143 "C:\Program Files (x86)\Microchip\xc8\v1.41\include\pic16f18313.h"
TMR1 equ 019h ;# 
# 1149 "C:\Program Files (x86)\Microchip\xc8\v1.41\include\pic16f18313.h"
TMR1L equ 019h ;# 
# 1168 "C:\Program Files (x86)\Microchip\xc8\v1.41\include\pic16f18313.h"
TMR1H equ 01Ah ;# 
# 1187 "C:\Program Files (x86)\Microchip\xc8\v1.41\include\pic16f18313.h"
T1CON equ 01Bh ;# 
# 1258 "C:\Program Files (x86)\Microchip\xc8\v1.41\include\pic16f18313.h"
T1GCON equ 01Ch ;# 
# 1327 "C:\Program Files (x86)\Microchip\xc8\v1.41\include\pic16f18313.h"
TMR2 equ 01Dh ;# 
# 1346 "C:\Program Files (x86)\Microchip\xc8\v1.41\include\pic16f18313.h"
PR2 equ 01Eh ;# 
# 1365 "C:\Program Files (x86)\Microchip\xc8\v1.41\include\pic16f18313.h"
T2CON equ 01Fh ;# 
# 1435 "C:\Program Files (x86)\Microchip\xc8\v1.41\include\pic16f18313.h"
TRISA equ 08Ch ;# 
# 1479 "C:\Program Files (x86)\Microchip\xc8\v1.41\include\pic16f18313.h"
PIE0 equ 090h ;# 
# 1511 "C:\Program Files (x86)\Microchip\xc8\v1.41\include\pic16f18313.h"
PIE1 equ 091h ;# 
# 1572 "C:\Program Files (x86)\Microchip\xc8\v1.41\include\pic16f18313.h"
PIE2 equ 092h ;# 
# 1604 "C:\Program Files (x86)\Microchip\xc8\v1.41\include\pic16f18313.h"
PIE3 equ 093h ;# 
# 1642 "C:\Program Files (x86)\Microchip\xc8\v1.41\include\pic16f18313.h"
PIE4 equ 094h ;# 
# 1674 "C:\Program Files (x86)\Microchip\xc8\v1.41\include\pic16f18313.h"
WDTCON equ 097h ;# 
# 1732 "C:\Program Files (x86)\Microchip\xc8\v1.41\include\pic16f18313.h"
ADRES equ 09Bh ;# 
# 1738 "C:\Program Files (x86)\Microchip\xc8\v1.41\include\pic16f18313.h"
ADRESL equ 09Bh ;# 
# 1757 "C:\Program Files (x86)\Microchip\xc8\v1.41\include\pic16f18313.h"
ADRESH equ 09Ch ;# 
# 1776 "C:\Program Files (x86)\Microchip\xc8\v1.41\include\pic16f18313.h"
ADCON0 equ 09Dh ;# 
# 1861 "C:\Program Files (x86)\Microchip\xc8\v1.41\include\pic16f18313.h"
ADCON1 equ 09Eh ;# 
# 1932 "C:\Program Files (x86)\Microchip\xc8\v1.41\include\pic16f18313.h"
ADACT equ 09Fh ;# 
# 1977 "C:\Program Files (x86)\Microchip\xc8\v1.41\include\pic16f18313.h"
LATA equ 010Ch ;# 
# 2021 "C:\Program Files (x86)\Microchip\xc8\v1.41\include\pic16f18313.h"
CM1CON0 equ 0111h ;# 
# 2072 "C:\Program Files (x86)\Microchip\xc8\v1.41\include\pic16f18313.h"
CM1CON1 equ 0112h ;# 
# 2147 "C:\Program Files (x86)\Microchip\xc8\v1.41\include\pic16f18313.h"
CMOUT equ 0115h ;# 
# 2166 "C:\Program Files (x86)\Microchip\xc8\v1.41\include\pic16f18313.h"
BORCON equ 0116h ;# 
# 2192 "C:\Program Files (x86)\Microchip\xc8\v1.41\include\pic16f18313.h"
FVRCON equ 0117h ;# 
# 2267 "C:\Program Files (x86)\Microchip\xc8\v1.41\include\pic16f18313.h"
DACCON0 equ 0118h ;# 
# 2322 "C:\Program Files (x86)\Microchip\xc8\v1.41\include\pic16f18313.h"
DACCON1 equ 0119h ;# 
# 2373 "C:\Program Files (x86)\Microchip\xc8\v1.41\include\pic16f18313.h"
ANSELA equ 018Ch ;# 
# 2417 "C:\Program Files (x86)\Microchip\xc8\v1.41\include\pic16f18313.h"
VREGCON equ 0197h ;# 
# 2437 "C:\Program Files (x86)\Microchip\xc8\v1.41\include\pic16f18313.h"
RC1REG equ 0199h ;# 
# 2442 "C:\Program Files (x86)\Microchip\xc8\v1.41\include\pic16f18313.h"
RCREG equ 0199h ;# 
# 2446 "C:\Program Files (x86)\Microchip\xc8\v1.41\include\pic16f18313.h"
RCREG1 equ 0199h ;# 
# 2490 "C:\Program Files (x86)\Microchip\xc8\v1.41\include\pic16f18313.h"
TX1REG equ 019Ah ;# 
# 2495 "C:\Program Files (x86)\Microchip\xc8\v1.41\include\pic16f18313.h"
TXREG1 equ 019Ah ;# 
# 2499 "C:\Program Files (x86)\Microchip\xc8\v1.41\include\pic16f18313.h"
TXREG equ 019Ah ;# 
# 2543 "C:\Program Files (x86)\Microchip\xc8\v1.41\include\pic16f18313.h"
SP1BRG equ 019Bh ;# 
# 2549 "C:\Program Files (x86)\Microchip\xc8\v1.41\include\pic16f18313.h"
SP1BRGL equ 019Bh ;# 
# 2554 "C:\Program Files (x86)\Microchip\xc8\v1.41\include\pic16f18313.h"
SPBRG equ 019Bh ;# 
# 2558 "C:\Program Files (x86)\Microchip\xc8\v1.41\include\pic16f18313.h"
SPBRG1 equ 019Bh ;# 
# 2562 "C:\Program Files (x86)\Microchip\xc8\v1.41\include\pic16f18313.h"
SPBRGL equ 019Bh ;# 
# 2618 "C:\Program Files (x86)\Microchip\xc8\v1.41\include\pic16f18313.h"
SP1BRGH equ 019Ch ;# 
# 2623 "C:\Program Files (x86)\Microchip\xc8\v1.41\include\pic16f18313.h"
SPBRGH equ 019Ch ;# 
# 2627 "C:\Program Files (x86)\Microchip\xc8\v1.41\include\pic16f18313.h"
SPBRGH1 equ 019Ch ;# 
# 2671 "C:\Program Files (x86)\Microchip\xc8\v1.41\include\pic16f18313.h"
RC1STA equ 019Dh ;# 
# 2676 "C:\Program Files (x86)\Microchip\xc8\v1.41\include\pic16f18313.h"
RCSTA1 equ 019Dh ;# 
# 2680 "C:\Program Files (x86)\Microchip\xc8\v1.41\include\pic16f18313.h"
RCSTA equ 019Dh ;# 
# 2850 "C:\Program Files (x86)\Microchip\xc8\v1.41\include\pic16f18313.h"
TX1STA equ 019Eh ;# 
# 2855 "C:\Program Files (x86)\Microchip\xc8\v1.41\include\pic16f18313.h"
TXSTA1 equ 019Eh ;# 
# 2859 "C:\Program Files (x86)\Microchip\xc8\v1.41\include\pic16f18313.h"
TXSTA equ 019Eh ;# 
# 3029 "C:\Program Files (x86)\Microchip\xc8\v1.41\include\pic16f18313.h"
BAUD1CON equ 019Fh ;# 
# 3034 "C:\Program Files (x86)\Microchip\xc8\v1.41\include\pic16f18313.h"
BAUDCON1 equ 019Fh ;# 
# 3038 "C:\Program Files (x86)\Microchip\xc8\v1.41\include\pic16f18313.h"
BAUDCTL1 equ 019Fh ;# 
# 3042 "C:\Program Files (x86)\Microchip\xc8\v1.41\include\pic16f18313.h"
BAUDCON equ 019Fh ;# 
# 3046 "C:\Program Files (x86)\Microchip\xc8\v1.41\include\pic16f18313.h"
BAUDCTL equ 019Fh ;# 
# 3274 "C:\Program Files (x86)\Microchip\xc8\v1.41\include\pic16f18313.h"
WPUA equ 020Ch ;# 
# 3323 "C:\Program Files (x86)\Microchip\xc8\v1.41\include\pic16f18313.h"
SSP1BUF equ 0211h ;# 
# 3328 "C:\Program Files (x86)\Microchip\xc8\v1.41\include\pic16f18313.h"
SSPBUF equ 0211h ;# 
# 3576 "C:\Program Files (x86)\Microchip\xc8\v1.41\include\pic16f18313.h"
SSP1ADD equ 0212h ;# 
# 3581 "C:\Program Files (x86)\Microchip\xc8\v1.41\include\pic16f18313.h"
SSPADD equ 0212h ;# 
# 3829 "C:\Program Files (x86)\Microchip\xc8\v1.41\include\pic16f18313.h"
SSP1MSK equ 0213h ;# 
# 3834 "C:\Program Files (x86)\Microchip\xc8\v1.41\include\pic16f18313.h"
SSPMSK equ 0213h ;# 
# 4082 "C:\Program Files (x86)\Microchip\xc8\v1.41\include\pic16f18313.h"
SSP1STAT equ 0214h ;# 
# 4087 "C:\Program Files (x86)\Microchip\xc8\v1.41\include\pic16f18313.h"
SSPSTAT equ 0214h ;# 
# 4203 "C:\Program Files (x86)\Microchip\xc8\v1.41\include\pic16f18313.h"
SSP1CON1 equ 0215h ;# 
# 4208 "C:\Program Files (x86)\Microchip\xc8\v1.41\include\pic16f18313.h"
SSPCON equ 0215h ;# 
# 4212 "C:\Program Files (x86)\Microchip\xc8\v1.41\include\pic16f18313.h"
SSPCON1 equ 0215h ;# 
# 4216 "C:\Program Files (x86)\Microchip\xc8\v1.41\include\pic16f18313.h"
SSP1CON equ 0215h ;# 
# 4472 "C:\Program Files (x86)\Microchip\xc8\v1.41\include\pic16f18313.h"
SSP1CON2 equ 0216h ;# 
# 4477 "C:\Program Files (x86)\Microchip\xc8\v1.41\include\pic16f18313.h"
SSPCON2 equ 0216h ;# 
# 4593 "C:\Program Files (x86)\Microchip\xc8\v1.41\include\pic16f18313.h"
SSP1CON3 equ 0217h ;# 
# 4598 "C:\Program Files (x86)\Microchip\xc8\v1.41\include\pic16f18313.h"
SSPCON3 equ 0217h ;# 
# 4714 "C:\Program Files (x86)\Microchip\xc8\v1.41\include\pic16f18313.h"
ODCONA equ 028Ch ;# 
# 4758 "C:\Program Files (x86)\Microchip\xc8\v1.41\include\pic16f18313.h"
CCPR1 equ 0291h ;# 
# 4764 "C:\Program Files (x86)\Microchip\xc8\v1.41\include\pic16f18313.h"
CCPR1L equ 0291h ;# 
# 4783 "C:\Program Files (x86)\Microchip\xc8\v1.41\include\pic16f18313.h"
CCPR1H equ 0292h ;# 
# 4802 "C:\Program Files (x86)\Microchip\xc8\v1.41\include\pic16f18313.h"
CCP1CON equ 0293h ;# 
# 4866 "C:\Program Files (x86)\Microchip\xc8\v1.41\include\pic16f18313.h"
CCP1CAP equ 0294h ;# 
# 4905 "C:\Program Files (x86)\Microchip\xc8\v1.41\include\pic16f18313.h"
CCPR2 equ 0295h ;# 
# 4911 "C:\Program Files (x86)\Microchip\xc8\v1.41\include\pic16f18313.h"
CCPR2L equ 0295h ;# 
# 4930 "C:\Program Files (x86)\Microchip\xc8\v1.41\include\pic16f18313.h"
CCPR2H equ 0296h ;# 
# 4949 "C:\Program Files (x86)\Microchip\xc8\v1.41\include\pic16f18313.h"
CCP2CON equ 0297h ;# 
# 5013 "C:\Program Files (x86)\Microchip\xc8\v1.41\include\pic16f18313.h"
CCP2CAP equ 0298h ;# 
# 5052 "C:\Program Files (x86)\Microchip\xc8\v1.41\include\pic16f18313.h"
SLRCONA equ 030Ch ;# 
# 5096 "C:\Program Files (x86)\Microchip\xc8\v1.41\include\pic16f18313.h"
INLVLA equ 038Ch ;# 
# 5145 "C:\Program Files (x86)\Microchip\xc8\v1.41\include\pic16f18313.h"
IOCAP equ 0391h ;# 
# 5194 "C:\Program Files (x86)\Microchip\xc8\v1.41\include\pic16f18313.h"
IOCAN equ 0392h ;# 
# 5243 "C:\Program Files (x86)\Microchip\xc8\v1.41\include\pic16f18313.h"
IOCAF equ 0393h ;# 
# 5292 "C:\Program Files (x86)\Microchip\xc8\v1.41\include\pic16f18313.h"
CLKRCON equ 039Ah ;# 
# 5356 "C:\Program Files (x86)\Microchip\xc8\v1.41\include\pic16f18313.h"
MDCON equ 039Ch ;# 
# 5395 "C:\Program Files (x86)\Microchip\xc8\v1.41\include\pic16f18313.h"
MDSRC equ 039Dh ;# 
# 5440 "C:\Program Files (x86)\Microchip\xc8\v1.41\include\pic16f18313.h"
MDCARH equ 039Eh ;# 
# 5498 "C:\Program Files (x86)\Microchip\xc8\v1.41\include\pic16f18313.h"
MDCARL equ 039Fh ;# 
# 5558 "C:\Program Files (x86)\Microchip\xc8\v1.41\include\pic16f18313.h"
NCO1ACC equ 0498h ;# 
# 5564 "C:\Program Files (x86)\Microchip\xc8\v1.41\include\pic16f18313.h"
NCO1ACCL equ 0498h ;# 
# 5583 "C:\Program Files (x86)\Microchip\xc8\v1.41\include\pic16f18313.h"
NCO1ACCH equ 0499h ;# 
# 5602 "C:\Program Files (x86)\Microchip\xc8\v1.41\include\pic16f18313.h"
NCO1ACCU equ 049Ah ;# 
# 5623 "C:\Program Files (x86)\Microchip\xc8\v1.41\include\pic16f18313.h"
NCO1INC equ 049Bh ;# 
# 5629 "C:\Program Files (x86)\Microchip\xc8\v1.41\include\pic16f18313.h"
NCO1INCL equ 049Bh ;# 
# 5648 "C:\Program Files (x86)\Microchip\xc8\v1.41\include\pic16f18313.h"
NCO1INCH equ 049Ch ;# 
# 5667 "C:\Program Files (x86)\Microchip\xc8\v1.41\include\pic16f18313.h"
NCO1INCU equ 049Dh ;# 
# 5686 "C:\Program Files (x86)\Microchip\xc8\v1.41\include\pic16f18313.h"
NCO1CON equ 049Eh ;# 
# 5725 "C:\Program Files (x86)\Microchip\xc8\v1.41\include\pic16f18313.h"
NCO1CLK equ 049Fh ;# 
# 5751 "C:\Program Files (x86)\Microchip\xc8\v1.41\include\pic16f18313.h"
PWM5DCL equ 0617h ;# 
# 5786 "C:\Program Files (x86)\Microchip\xc8\v1.41\include\pic16f18313.h"
PWM5DCH equ 0618h ;# 
# 5855 "C:\Program Files (x86)\Microchip\xc8\v1.41\include\pic16f18313.h"
PWM5CON equ 0619h ;# 
# 5860 "C:\Program Files (x86)\Microchip\xc8\v1.41\include\pic16f18313.h"
PWM5CON0 equ 0619h ;# 
# 5920 "C:\Program Files (x86)\Microchip\xc8\v1.41\include\pic16f18313.h"
PWM6DCL equ 061Ah ;# 
# 5955 "C:\Program Files (x86)\Microchip\xc8\v1.41\include\pic16f18313.h"
PWM6DCH equ 061Bh ;# 
# 6024 "C:\Program Files (x86)\Microchip\xc8\v1.41\include\pic16f18313.h"
PWM6CON equ 061Ch ;# 
# 6029 "C:\Program Files (x86)\Microchip\xc8\v1.41\include\pic16f18313.h"
PWM6CON0 equ 061Ch ;# 
# 6089 "C:\Program Files (x86)\Microchip\xc8\v1.41\include\pic16f18313.h"
CWG1CLKCON equ 0691h ;# 
# 6116 "C:\Program Files (x86)\Microchip\xc8\v1.41\include\pic16f18313.h"
CWG1DAT equ 0692h ;# 
# 6161 "C:\Program Files (x86)\Microchip\xc8\v1.41\include\pic16f18313.h"
CWG1DBR equ 0693h ;# 
# 6264 "C:\Program Files (x86)\Microchip\xc8\v1.41\include\pic16f18313.h"
CWG1DBF equ 0694h ;# 
# 6367 "C:\Program Files (x86)\Microchip\xc8\v1.41\include\pic16f18313.h"
CWG1CON0 equ 0695h ;# 
# 6467 "C:\Program Files (x86)\Microchip\xc8\v1.41\include\pic16f18313.h"
CWG1CON1 equ 0696h ;# 
# 6544 "C:\Program Files (x86)\Microchip\xc8\v1.41\include\pic16f18313.h"
CWG1AS0 equ 0697h ;# 
# 6663 "C:\Program Files (x86)\Microchip\xc8\v1.41\include\pic16f18313.h"
CWG1AS1 equ 0698h ;# 
# 6695 "C:\Program Files (x86)\Microchip\xc8\v1.41\include\pic16f18313.h"
CWG1STR equ 0699h ;# 
# 6806 "C:\Program Files (x86)\Microchip\xc8\v1.41\include\pic16f18313.h"
NVMADR equ 0891h ;# 
# 6811 "C:\Program Files (x86)\Microchip\xc8\v1.41\include\pic16f18313.h"
EEADR equ 0891h ;# 
# 6815 "C:\Program Files (x86)\Microchip\xc8\v1.41\include\pic16f18313.h"
PMADR equ 0891h ;# 
# 6821 "C:\Program Files (x86)\Microchip\xc8\v1.41\include\pic16f18313.h"
NVMADRL equ 0891h ;# 
# 6826 "C:\Program Files (x86)\Microchip\xc8\v1.41\include\pic16f18313.h"
EEADRL equ 0891h ;# 
# 6830 "C:\Program Files (x86)\Microchip\xc8\v1.41\include\pic16f18313.h"
PMADRL equ 0891h ;# 
# 7222 "C:\Program Files (x86)\Microchip\xc8\v1.41\include\pic16f18313.h"
NVMADRH equ 0892h ;# 
# 7227 "C:\Program Files (x86)\Microchip\xc8\v1.41\include\pic16f18313.h"
EEADRH equ 0892h ;# 
# 7231 "C:\Program Files (x86)\Microchip\xc8\v1.41\include\pic16f18313.h"
PMADRH equ 0892h ;# 
# 7569 "C:\Program Files (x86)\Microchip\xc8\v1.41\include\pic16f18313.h"
NVMDAT equ 0893h ;# 
# 7574 "C:\Program Files (x86)\Microchip\xc8\v1.41\include\pic16f18313.h"
EEDAT equ 0893h ;# 
# 7578 "C:\Program Files (x86)\Microchip\xc8\v1.41\include\pic16f18313.h"
PMDAT equ 0893h ;# 
# 7584 "C:\Program Files (x86)\Microchip\xc8\v1.41\include\pic16f18313.h"
NVMDATL equ 0893h ;# 
# 7589 "C:\Program Files (x86)\Microchip\xc8\v1.41\include\pic16f18313.h"
EEDATL equ 0893h ;# 
# 7593 "C:\Program Files (x86)\Microchip\xc8\v1.41\include\pic16f18313.h"
PMDATL equ 0893h ;# 
# 7985 "C:\Program Files (x86)\Microchip\xc8\v1.41\include\pic16f18313.h"
NVMDATH equ 0894h ;# 
# 7990 "C:\Program Files (x86)\Microchip\xc8\v1.41\include\pic16f18313.h"
EEDATH equ 0894h ;# 
# 7994 "C:\Program Files (x86)\Microchip\xc8\v1.41\include\pic16f18313.h"
PMDATH equ 0894h ;# 
# 8314 "C:\Program Files (x86)\Microchip\xc8\v1.41\include\pic16f18313.h"
NVMCON1 equ 0895h ;# 
# 8319 "C:\Program Files (x86)\Microchip\xc8\v1.41\include\pic16f18313.h"
EECON1 equ 0895h ;# 
# 8323 "C:\Program Files (x86)\Microchip\xc8\v1.41\include\pic16f18313.h"
PMCON1 equ 0895h ;# 
# 8502 "C:\Program Files (x86)\Microchip\xc8\v1.41\include\pic16f18313.h"
NVMCON2 equ 0896h ;# 
# 8507 "C:\Program Files (x86)\Microchip\xc8\v1.41\include\pic16f18313.h"
EECON2 equ 0896h ;# 
# 8511 "C:\Program Files (x86)\Microchip\xc8\v1.41\include\pic16f18313.h"
PMCON2 equ 0896h ;# 
# 8603 "C:\Program Files (x86)\Microchip\xc8\v1.41\include\pic16f18313.h"
PCON0 equ 089Bh ;# 
# 8659 "C:\Program Files (x86)\Microchip\xc8\v1.41\include\pic16f18313.h"
PMD0 equ 0911h ;# 
# 8703 "C:\Program Files (x86)\Microchip\xc8\v1.41\include\pic16f18313.h"
PMD1 equ 0912h ;# 
# 8741 "C:\Program Files (x86)\Microchip\xc8\v1.41\include\pic16f18313.h"
PMD2 equ 0913h ;# 
# 8774 "C:\Program Files (x86)\Microchip\xc8\v1.41\include\pic16f18313.h"
PMD3 equ 0914h ;# 
# 8818 "C:\Program Files (x86)\Microchip\xc8\v1.41\include\pic16f18313.h"
PMD4 equ 0915h ;# 
# 8845 "C:\Program Files (x86)\Microchip\xc8\v1.41\include\pic16f18313.h"
PMD5 equ 0916h ;# 
# 8876 "C:\Program Files (x86)\Microchip\xc8\v1.41\include\pic16f18313.h"
CPUDOZE equ 0918h ;# 
# 8940 "C:\Program Files (x86)\Microchip\xc8\v1.41\include\pic16f18313.h"
OSCCON1 equ 0919h ;# 
# 9009 "C:\Program Files (x86)\Microchip\xc8\v1.41\include\pic16f18313.h"
OSCCON2 equ 091Ah ;# 
# 9078 "C:\Program Files (x86)\Microchip\xc8\v1.41\include\pic16f18313.h"
OSCCON3 equ 091Bh ;# 
# 9122 "C:\Program Files (x86)\Microchip\xc8\v1.41\include\pic16f18313.h"
OSCSTAT1 equ 091Ch ;# 
# 9173 "C:\Program Files (x86)\Microchip\xc8\v1.41\include\pic16f18313.h"
OSCEN equ 091Dh ;# 
# 9218 "C:\Program Files (x86)\Microchip\xc8\v1.41\include\pic16f18313.h"
OSCTUNE equ 091Eh ;# 
# 9275 "C:\Program Files (x86)\Microchip\xc8\v1.41\include\pic16f18313.h"
OSCFRQ equ 091Fh ;# 
# 9320 "C:\Program Files (x86)\Microchip\xc8\v1.41\include\pic16f18313.h"
PPSLOCK equ 0E0Fh ;# 
# 9339 "C:\Program Files (x86)\Microchip\xc8\v1.41\include\pic16f18313.h"
INTPPS equ 0E10h ;# 
# 9390 "C:\Program Files (x86)\Microchip\xc8\v1.41\include\pic16f18313.h"
T0CKIPPS equ 0E11h ;# 
# 9441 "C:\Program Files (x86)\Microchip\xc8\v1.41\include\pic16f18313.h"
T1CKIPPS equ 0E12h ;# 
# 9492 "C:\Program Files (x86)\Microchip\xc8\v1.41\include\pic16f18313.h"
T1GPPS equ 0E13h ;# 
# 9543 "C:\Program Files (x86)\Microchip\xc8\v1.41\include\pic16f18313.h"
CCP1PPS equ 0E14h ;# 
# 9594 "C:\Program Files (x86)\Microchip\xc8\v1.41\include\pic16f18313.h"
CCP2PPS equ 0E15h ;# 
# 9645 "C:\Program Files (x86)\Microchip\xc8\v1.41\include\pic16f18313.h"
CWG1PPS equ 0E18h ;# 
# 9696 "C:\Program Files (x86)\Microchip\xc8\v1.41\include\pic16f18313.h"
MDCIN1PPS equ 0E1Ah ;# 
# 9747 "C:\Program Files (x86)\Microchip\xc8\v1.41\include\pic16f18313.h"
MDCIN2PPS equ 0E1Bh ;# 
# 9798 "C:\Program Files (x86)\Microchip\xc8\v1.41\include\pic16f18313.h"
MDMINPPS equ 0E1Ch ;# 
# 9849 "C:\Program Files (x86)\Microchip\xc8\v1.41\include\pic16f18313.h"
SSP1CLKPPS equ 0E20h ;# 
# 9900 "C:\Program Files (x86)\Microchip\xc8\v1.41\include\pic16f18313.h"
SSP1DATPPS equ 0E21h ;# 
# 9951 "C:\Program Files (x86)\Microchip\xc8\v1.41\include\pic16f18313.h"
SSP1SSPPS equ 0E22h ;# 
# 10002 "C:\Program Files (x86)\Microchip\xc8\v1.41\include\pic16f18313.h"
RXPPS equ 0E24h ;# 
# 10053 "C:\Program Files (x86)\Microchip\xc8\v1.41\include\pic16f18313.h"
TXPPS equ 0E25h ;# 
# 10104 "C:\Program Files (x86)\Microchip\xc8\v1.41\include\pic16f18313.h"
CLCIN0PPS equ 0E28h ;# 
# 10155 "C:\Program Files (x86)\Microchip\xc8\v1.41\include\pic16f18313.h"
CLCIN1PPS equ 0E29h ;# 
# 10206 "C:\Program Files (x86)\Microchip\xc8\v1.41\include\pic16f18313.h"
CLCIN2PPS equ 0E2Ah ;# 
# 10257 "C:\Program Files (x86)\Microchip\xc8\v1.41\include\pic16f18313.h"
CLCIN3PPS equ 0E2Bh ;# 
# 10308 "C:\Program Files (x86)\Microchip\xc8\v1.41\include\pic16f18313.h"
RA0PPS equ 0E90h ;# 
# 10359 "C:\Program Files (x86)\Microchip\xc8\v1.41\include\pic16f18313.h"
RA1PPS equ 0E91h ;# 
# 10410 "C:\Program Files (x86)\Microchip\xc8\v1.41\include\pic16f18313.h"
RA2PPS equ 0E92h ;# 
# 10461 "C:\Program Files (x86)\Microchip\xc8\v1.41\include\pic16f18313.h"
RA4PPS equ 0E94h ;# 
# 10512 "C:\Program Files (x86)\Microchip\xc8\v1.41\include\pic16f18313.h"
RA5PPS equ 0E95h ;# 
# 10563 "C:\Program Files (x86)\Microchip\xc8\v1.41\include\pic16f18313.h"
CLCDATA equ 0F0Fh ;# 
# 10588 "C:\Program Files (x86)\Microchip\xc8\v1.41\include\pic16f18313.h"
CLC1CON equ 0F10h ;# 
# 10705 "C:\Program Files (x86)\Microchip\xc8\v1.41\include\pic16f18313.h"
CLC1POL equ 0F11h ;# 
# 10782 "C:\Program Files (x86)\Microchip\xc8\v1.41\include\pic16f18313.h"
CLC1SEL0 equ 0F12h ;# 
# 10873 "C:\Program Files (x86)\Microchip\xc8\v1.41\include\pic16f18313.h"
CLC1SEL1 equ 0F13h ;# 
# 10964 "C:\Program Files (x86)\Microchip\xc8\v1.41\include\pic16f18313.h"
CLC1SEL2 equ 0F14h ;# 
# 11055 "C:\Program Files (x86)\Microchip\xc8\v1.41\include\pic16f18313.h"
CLC1SEL3 equ 0F15h ;# 
# 11146 "C:\Program Files (x86)\Microchip\xc8\v1.41\include\pic16f18313.h"
CLC1GLS0 equ 0F16h ;# 
# 11257 "C:\Program Files (x86)\Microchip\xc8\v1.41\include\pic16f18313.h"
CLC1GLS1 equ 0F17h ;# 
# 11368 "C:\Program Files (x86)\Microchip\xc8\v1.41\include\pic16f18313.h"
CLC1GLS2 equ 0F18h ;# 
# 11479 "C:\Program Files (x86)\Microchip\xc8\v1.41\include\pic16f18313.h"
CLC1GLS3 equ 0F19h ;# 
# 11590 "C:\Program Files (x86)\Microchip\xc8\v1.41\include\pic16f18313.h"
CLC2CON equ 0F1Ah ;# 
# 11707 "C:\Program Files (x86)\Microchip\xc8\v1.41\include\pic16f18313.h"
CLC2POL equ 0F1Bh ;# 
# 11784 "C:\Program Files (x86)\Microchip\xc8\v1.41\include\pic16f18313.h"
CLC2SEL0 equ 0F1Ch ;# 
# 11875 "C:\Program Files (x86)\Microchip\xc8\v1.41\include\pic16f18313.h"
CLC2SEL1 equ 0F1Dh ;# 
# 11966 "C:\Program Files (x86)\Microchip\xc8\v1.41\include\pic16f18313.h"
CLC2SEL2 equ 0F1Eh ;# 
# 12057 "C:\Program Files (x86)\Microchip\xc8\v1.41\include\pic16f18313.h"
CLC2SEL3 equ 0F1Fh ;# 
# 12148 "C:\Program Files (x86)\Microchip\xc8\v1.41\include\pic16f18313.h"
CLC2GLS0 equ 0F20h ;# 
# 12259 "C:\Program Files (x86)\Microchip\xc8\v1.41\include\pic16f18313.h"
CLC2GLS1 equ 0F21h ;# 
# 12370 "C:\Program Files (x86)\Microchip\xc8\v1.41\include\pic16f18313.h"
CLC2GLS2 equ 0F22h ;# 
# 12481 "C:\Program Files (x86)\Microchip\xc8\v1.41\include\pic16f18313.h"
CLC2GLS3 equ 0F23h ;# 
# 12592 "C:\Program Files (x86)\Microchip\xc8\v1.41\include\pic16f18313.h"
STATUS_SHAD equ 0FE4h ;# 
# 12623 "C:\Program Files (x86)\Microchip\xc8\v1.41\include\pic16f18313.h"
WREG_SHAD equ 0FE5h ;# 
# 12642 "C:\Program Files (x86)\Microchip\xc8\v1.41\include\pic16f18313.h"
BSR_SHAD equ 0FE6h ;# 
# 12661 "C:\Program Files (x86)\Microchip\xc8\v1.41\include\pic16f18313.h"
PCLATH_SHAD equ 0FE7h ;# 
# 12680 "C:\Program Files (x86)\Microchip\xc8\v1.41\include\pic16f18313.h"
FSR0L_SHAD equ 0FE8h ;# 
# 12699 "C:\Program Files (x86)\Microchip\xc8\v1.41\include\pic16f18313.h"
FSR0H_SHAD equ 0FE9h ;# 
# 12718 "C:\Program Files (x86)\Microchip\xc8\v1.41\include\pic16f18313.h"
FSR1L_SHAD equ 0FEAh ;# 
# 12737 "C:\Program Files (x86)\Microchip\xc8\v1.41\include\pic16f18313.h"
FSR1H_SHAD equ 0FEBh ;# 
# 12756 "C:\Program Files (x86)\Microchip\xc8\v1.41\include\pic16f18313.h"
STKPTR equ 0FEDh ;# 
# 12775 "C:\Program Files (x86)\Microchip\xc8\v1.41\include\pic16f18313.h"
TOSL equ 0FEEh ;# 
# 12794 "C:\Program Files (x86)\Microchip\xc8\v1.41\include\pic16f18313.h"
TOSH equ 0FEFh ;# 
# 51 "C:\Program Files (x86)\Microchip\xc8\v1.41\include\pic16f18313.h"
INDF0 equ 00h ;# 
# 70 "C:\Program Files (x86)\Microchip\xc8\v1.41\include\pic16f18313.h"
INDF1 equ 01h ;# 
# 89 "C:\Program Files (x86)\Microchip\xc8\v1.41\include\pic16f18313.h"
PCL equ 02h ;# 
# 108 "C:\Program Files (x86)\Microchip\xc8\v1.41\include\pic16f18313.h"
STATUS equ 03h ;# 
# 169 "C:\Program Files (x86)\Microchip\xc8\v1.41\include\pic16f18313.h"
FSR0L equ 04h ;# 
# 188 "C:\Program Files (x86)\Microchip\xc8\v1.41\include\pic16f18313.h"
FSR0H equ 05h ;# 
# 210 "C:\Program Files (x86)\Microchip\xc8\v1.41\include\pic16f18313.h"
FSR1L equ 06h ;# 
# 229 "C:\Program Files (x86)\Microchip\xc8\v1.41\include\pic16f18313.h"
FSR1H equ 07h ;# 
# 248 "C:\Program Files (x86)\Microchip\xc8\v1.41\include\pic16f18313.h"
BSR equ 08h ;# 
# 299 "C:\Program Files (x86)\Microchip\xc8\v1.41\include\pic16f18313.h"
WREG equ 09h ;# 
# 318 "C:\Program Files (x86)\Microchip\xc8\v1.41\include\pic16f18313.h"
PCLATH equ 0Ah ;# 
# 337 "C:\Program Files (x86)\Microchip\xc8\v1.41\include\pic16f18313.h"
INTCON equ 0Bh ;# 
# 369 "C:\Program Files (x86)\Microchip\xc8\v1.41\include\pic16f18313.h"
PORTA equ 0Ch ;# 
# 418 "C:\Program Files (x86)\Microchip\xc8\v1.41\include\pic16f18313.h"
PIR0 equ 010h ;# 
# 450 "C:\Program Files (x86)\Microchip\xc8\v1.41\include\pic16f18313.h"
PIR1 equ 011h ;# 
# 511 "C:\Program Files (x86)\Microchip\xc8\v1.41\include\pic16f18313.h"
PIR2 equ 012h ;# 
# 543 "C:\Program Files (x86)\Microchip\xc8\v1.41\include\pic16f18313.h"
PIR3 equ 013h ;# 
# 581 "C:\Program Files (x86)\Microchip\xc8\v1.41\include\pic16f18313.h"
PIR4 equ 014h ;# 
# 613 "C:\Program Files (x86)\Microchip\xc8\v1.41\include\pic16f18313.h"
TMR0L equ 015h ;# 
# 618 "C:\Program Files (x86)\Microchip\xc8\v1.41\include\pic16f18313.h"
TMR0 equ 015h ;# 
# 750 "C:\Program Files (x86)\Microchip\xc8\v1.41\include\pic16f18313.h"
TMR0H equ 016h ;# 
# 755 "C:\Program Files (x86)\Microchip\xc8\v1.41\include\pic16f18313.h"
PR0 equ 016h ;# 
# 1003 "C:\Program Files (x86)\Microchip\xc8\v1.41\include\pic16f18313.h"
T0CON0 equ 017h ;# 
# 1067 "C:\Program Files (x86)\Microchip\xc8\v1.41\include\pic16f18313.h"
T0CON1 equ 018h ;# 
# 1143 "C:\Program Files (x86)\Microchip\xc8\v1.41\include\pic16f18313.h"
TMR1 equ 019h ;# 
# 1149 "C:\Program Files (x86)\Microchip\xc8\v1.41\include\pic16f18313.h"
TMR1L equ 019h ;# 
# 1168 "C:\Program Files (x86)\Microchip\xc8\v1.41\include\pic16f18313.h"
TMR1H equ 01Ah ;# 
# 1187 "C:\Program Files (x86)\Microchip\xc8\v1.41\include\pic16f18313.h"
T1CON equ 01Bh ;# 
# 1258 "C:\Program Files (x86)\Microchip\xc8\v1.41\include\pic16f18313.h"
T1GCON equ 01Ch ;# 
# 1327 "C:\Program Files (x86)\Microchip\xc8\v1.41\include\pic16f18313.h"
TMR2 equ 01Dh ;# 
# 1346 "C:\Program Files (x86)\Microchip\xc8\v1.41\include\pic16f18313.h"
PR2 equ 01Eh ;# 
# 1365 "C:\Program Files (x86)\Microchip\xc8\v1.41\include\pic16f18313.h"
T2CON equ 01Fh ;# 
# 1435 "C:\Program Files (x86)\Microchip\xc8\v1.41\include\pic16f18313.h"
TRISA equ 08Ch ;# 
# 1479 "C:\Program Files (x86)\Microchip\xc8\v1.41\include\pic16f18313.h"
PIE0 equ 090h ;# 
# 1511 "C:\Program Files (x86)\Microchip\xc8\v1.41\include\pic16f18313.h"
PIE1 equ 091h ;# 
# 1572 "C:\Program Files (x86)\Microchip\xc8\v1.41\include\pic16f18313.h"
PIE2 equ 092h ;# 
# 1604 "C:\Program Files (x86)\Microchip\xc8\v1.41\include\pic16f18313.h"
PIE3 equ 093h ;# 
# 1642 "C:\Program Files (x86)\Microchip\xc8\v1.41\include\pic16f18313.h"
PIE4 equ 094h ;# 
# 1674 "C:\Program Files (x86)\Microchip\xc8\v1.41\include\pic16f18313.h"
WDTCON equ 097h ;# 
# 1732 "C:\Program Files (x86)\Microchip\xc8\v1.41\include\pic16f18313.h"
ADRES equ 09Bh ;# 
# 1738 "C:\Program Files (x86)\Microchip\xc8\v1.41\include\pic16f18313.h"
ADRESL equ 09Bh ;# 
# 1757 "C:\Program Files (x86)\Microchip\xc8\v1.41\include\pic16f18313.h"
ADRESH equ 09Ch ;# 
# 1776 "C:\Program Files (x86)\Microchip\xc8\v1.41\include\pic16f18313.h"
ADCON0 equ 09Dh ;# 
# 1861 "C:\Program Files (x86)\Microchip\xc8\v1.41\include\pic16f18313.h"
ADCON1 equ 09Eh ;# 
# 1932 "C:\Program Files (x86)\Microchip\xc8\v1.41\include\pic16f18313.h"
ADACT equ 09Fh ;# 
# 1977 "C:\Program Files (x86)\Microchip\xc8\v1.41\include\pic16f18313.h"
LATA equ 010Ch ;# 
# 2021 "C:\Program Files (x86)\Microchip\xc8\v1.41\include\pic16f18313.h"
CM1CON0 equ 0111h ;# 
# 2072 "C:\Program Files (x86)\Microchip\xc8\v1.41\include\pic16f18313.h"
CM1CON1 equ 0112h ;# 
# 2147 "C:\Program Files (x86)\Microchip\xc8\v1.41\include\pic16f18313.h"
CMOUT equ 0115h ;# 
# 2166 "C:\Program Files (x86)\Microchip\xc8\v1.41\include\pic16f18313.h"
BORCON equ 0116h ;# 
# 2192 "C:\Program Files (x86)\Microchip\xc8\v1.41\include\pic16f18313.h"
FVRCON equ 0117h ;# 
# 2267 "C:\Program Files (x86)\Microchip\xc8\v1.41\include\pic16f18313.h"
DACCON0 equ 0118h ;# 
# 2322 "C:\Program Files (x86)\Microchip\xc8\v1.41\include\pic16f18313.h"
DACCON1 equ 0119h ;# 
# 2373 "C:\Program Files (x86)\Microchip\xc8\v1.41\include\pic16f18313.h"
ANSELA equ 018Ch ;# 
# 2417 "C:\Program Files (x86)\Microchip\xc8\v1.41\include\pic16f18313.h"
VREGCON equ 0197h ;# 
# 2437 "C:\Program Files (x86)\Microchip\xc8\v1.41\include\pic16f18313.h"
RC1REG equ 0199h ;# 
# 2442 "C:\Program Files (x86)\Microchip\xc8\v1.41\include\pic16f18313.h"
RCREG equ 0199h ;# 
# 2446 "C:\Program Files (x86)\Microchip\xc8\v1.41\include\pic16f18313.h"
RCREG1 equ 0199h ;# 
# 2490 "C:\Program Files (x86)\Microchip\xc8\v1.41\include\pic16f18313.h"
TX1REG equ 019Ah ;# 
# 2495 "C:\Program Files (x86)\Microchip\xc8\v1.41\include\pic16f18313.h"
TXREG1 equ 019Ah ;# 
# 2499 "C:\Program Files (x86)\Microchip\xc8\v1.41\include\pic16f18313.h"
TXREG equ 019Ah ;# 
# 2543 "C:\Program Files (x86)\Microchip\xc8\v1.41\include\pic16f18313.h"
SP1BRG equ 019Bh ;# 
# 2549 "C:\Program Files (x86)\Microchip\xc8\v1.41\include\pic16f18313.h"
SP1BRGL equ 019Bh ;# 
# 2554 "C:\Program Files (x86)\Microchip\xc8\v1.41\include\pic16f18313.h"
SPBRG equ 019Bh ;# 
# 2558 "C:\Program Files (x86)\Microchip\xc8\v1.41\include\pic16f18313.h"
SPBRG1 equ 019Bh ;# 
# 2562 "C:\Program Files (x86)\Microchip\xc8\v1.41\include\pic16f18313.h"
SPBRGL equ 019Bh ;# 
# 2618 "C:\Program Files (x86)\Microchip\xc8\v1.41\include\pic16f18313.h"
SP1BRGH equ 019Ch ;# 
# 2623 "C:\Program Files (x86)\Microchip\xc8\v1.41\include\pic16f18313.h"
SPBRGH equ 019Ch ;# 
# 2627 "C:\Program Files (x86)\Microchip\xc8\v1.41\include\pic16f18313.h"
SPBRGH1 equ 019Ch ;# 
# 2671 "C:\Program Files (x86)\Microchip\xc8\v1.41\include\pic16f18313.h"
RC1STA equ 019Dh ;# 
# 2676 "C:\Program Files (x86)\Microchip\xc8\v1.41\include\pic16f18313.h"
RCSTA1 equ 019Dh ;# 
# 2680 "C:\Program Files (x86)\Microchip\xc8\v1.41\include\pic16f18313.h"
RCSTA equ 019Dh ;# 
# 2850 "C:\Program Files (x86)\Microchip\xc8\v1.41\include\pic16f18313.h"
TX1STA equ 019Eh ;# 
# 2855 "C:\Program Files (x86)\Microchip\xc8\v1.41\include\pic16f18313.h"
TXSTA1 equ 019Eh ;# 
# 2859 "C:\Program Files (x86)\Microchip\xc8\v1.41\include\pic16f18313.h"
TXSTA equ 019Eh ;# 
# 3029 "C:\Program Files (x86)\Microchip\xc8\v1.41\include\pic16f18313.h"
BAUD1CON equ 019Fh ;# 
# 3034 "C:\Program Files (x86)\Microchip\xc8\v1.41\include\pic16f18313.h"
BAUDCON1 equ 019Fh ;# 
# 3038 "C:\Program Files (x86)\Microchip\xc8\v1.41\include\pic16f18313.h"
BAUDCTL1 equ 019Fh ;# 
# 3042 "C:\Program Files (x86)\Microchip\xc8\v1.41\include\pic16f18313.h"
BAUDCON equ 019Fh ;# 
# 3046 "C:\Program Files (x86)\Microchip\xc8\v1.41\include\pic16f18313.h"
BAUDCTL equ 019Fh ;# 
# 3274 "C:\Program Files (x86)\Microchip\xc8\v1.41\include\pic16f18313.h"
WPUA equ 020Ch ;# 
# 3323 "C:\Program Files (x86)\Microchip\xc8\v1.41\include\pic16f18313.h"
SSP1BUF equ 0211h ;# 
# 3328 "C:\Program Files (x86)\Microchip\xc8\v1.41\include\pic16f18313.h"
SSPBUF equ 0211h ;# 
# 3576 "C:\Program Files (x86)\Microchip\xc8\v1.41\include\pic16f18313.h"
SSP1ADD equ 0212h ;# 
# 3581 "C:\Program Files (x86)\Microchip\xc8\v1.41\include\pic16f18313.h"
SSPADD equ 0212h ;# 
# 3829 "C:\Program Files (x86)\Microchip\xc8\v1.41\include\pic16f18313.h"
SSP1MSK equ 0213h ;# 
# 3834 "C:\Program Files (x86)\Microchip\xc8\v1.41\include\pic16f18313.h"
SSPMSK equ 0213h ;# 
# 4082 "C:\Program Files (x86)\Microchip\xc8\v1.41\include\pic16f18313.h"
SSP1STAT equ 0214h ;# 
# 4087 "C:\Program Files (x86)\Microchip\xc8\v1.41\include\pic16f18313.h"
SSPSTAT equ 0214h ;# 
# 4203 "C:\Program Files (x86)\Microchip\xc8\v1.41\include\pic16f18313.h"
SSP1CON1 equ 0215h ;# 
# 4208 "C:\Program Files (x86)\Microchip\xc8\v1.41\include\pic16f18313.h"
SSPCON equ 0215h ;# 
# 4212 "C:\Program Files (x86)\Microchip\xc8\v1.41\include\pic16f18313.h"
SSPCON1 equ 0215h ;# 
# 4216 "C:\Program Files (x86)\Microchip\xc8\v1.41\include\pic16f18313.h"
SSP1CON equ 0215h ;# 
# 4472 "C:\Program Files (x86)\Microchip\xc8\v1.41\include\pic16f18313.h"
SSP1CON2 equ 0216h ;# 
# 4477 "C:\Program Files (x86)\Microchip\xc8\v1.41\include\pic16f18313.h"
SSPCON2 equ 0216h ;# 
# 4593 "C:\Program Files (x86)\Microchip\xc8\v1.41\include\pic16f18313.h"
SSP1CON3 equ 0217h ;# 
# 4598 "C:\Program Files (x86)\Microchip\xc8\v1.41\include\pic16f18313.h"
SSPCON3 equ 0217h ;# 
# 4714 "C:\Program Files (x86)\Microchip\xc8\v1.41\include\pic16f18313.h"
ODCONA equ 028Ch ;# 
# 4758 "C:\Program Files (x86)\Microchip\xc8\v1.41\include\pic16f18313.h"
CCPR1 equ 0291h ;# 
# 4764 "C:\Program Files (x86)\Microchip\xc8\v1.41\include\pic16f18313.h"
CCPR1L equ 0291h ;# 
# 4783 "C:\Program Files (x86)\Microchip\xc8\v1.41\include\pic16f18313.h"
CCPR1H equ 0292h ;# 
# 4802 "C:\Program Files (x86)\Microchip\xc8\v1.41\include\pic16f18313.h"
CCP1CON equ 0293h ;# 
# 4866 "C:\Program Files (x86)\Microchip\xc8\v1.41\include\pic16f18313.h"
CCP1CAP equ 0294h ;# 
# 4905 "C:\Program Files (x86)\Microchip\xc8\v1.41\include\pic16f18313.h"
CCPR2 equ 0295h ;# 
# 4911 "C:\Program Files (x86)\Microchip\xc8\v1.41\include\pic16f18313.h"
CCPR2L equ 0295h ;# 
# 4930 "C:\Program Files (x86)\Microchip\xc8\v1.41\include\pic16f18313.h"
CCPR2H equ 0296h ;# 
# 4949 "C:\Program Files (x86)\Microchip\xc8\v1.41\include\pic16f18313.h"
CCP2CON equ 0297h ;# 
# 5013 "C:\Program Files (x86)\Microchip\xc8\v1.41\include\pic16f18313.h"
CCP2CAP equ 0298h ;# 
# 5052 "C:\Program Files (x86)\Microchip\xc8\v1.41\include\pic16f18313.h"
SLRCONA equ 030Ch ;# 
# 5096 "C:\Program Files (x86)\Microchip\xc8\v1.41\include\pic16f18313.h"
INLVLA equ 038Ch ;# 
# 5145 "C:\Program Files (x86)\Microchip\xc8\v1.41\include\pic16f18313.h"
IOCAP equ 0391h ;# 
# 5194 "C:\Program Files (x86)\Microchip\xc8\v1.41\include\pic16f18313.h"
IOCAN equ 0392h ;# 
# 5243 "C:\Program Files (x86)\Microchip\xc8\v1.41\include\pic16f18313.h"
IOCAF equ 0393h ;# 
# 5292 "C:\Program Files (x86)\Microchip\xc8\v1.41\include\pic16f18313.h"
CLKRCON equ 039Ah ;# 
# 5356 "C:\Program Files (x86)\Microchip\xc8\v1.41\include\pic16f18313.h"
MDCON equ 039Ch ;# 
# 5395 "C:\Program Files (x86)\Microchip\xc8\v1.41\include\pic16f18313.h"
MDSRC equ 039Dh ;# 
# 5440 "C:\Program Files (x86)\Microchip\xc8\v1.41\include\pic16f18313.h"
MDCARH equ 039Eh ;# 
# 5498 "C:\Program Files (x86)\Microchip\xc8\v1.41\include\pic16f18313.h"
MDCARL equ 039Fh ;# 
# 5558 "C:\Program Files (x86)\Microchip\xc8\v1.41\include\pic16f18313.h"
NCO1ACC equ 0498h ;# 
# 5564 "C:\Program Files (x86)\Microchip\xc8\v1.41\include\pic16f18313.h"
NCO1ACCL equ 0498h ;# 
# 5583 "C:\Program Files (x86)\Microchip\xc8\v1.41\include\pic16f18313.h"
NCO1ACCH equ 0499h ;# 
# 5602 "C:\Program Files (x86)\Microchip\xc8\v1.41\include\pic16f18313.h"
NCO1ACCU equ 049Ah ;# 
# 5623 "C:\Program Files (x86)\Microchip\xc8\v1.41\include\pic16f18313.h"
NCO1INC equ 049Bh ;# 
# 5629 "C:\Program Files (x86)\Microchip\xc8\v1.41\include\pic16f18313.h"
NCO1INCL equ 049Bh ;# 
# 5648 "C:\Program Files (x86)\Microchip\xc8\v1.41\include\pic16f18313.h"
NCO1INCH equ 049Ch ;# 
# 5667 "C:\Program Files (x86)\Microchip\xc8\v1.41\include\pic16f18313.h"
NCO1INCU equ 049Dh ;# 
# 5686 "C:\Program Files (x86)\Microchip\xc8\v1.41\include\pic16f18313.h"
NCO1CON equ 049Eh ;# 
# 5725 "C:\Program Files (x86)\Microchip\xc8\v1.41\include\pic16f18313.h"
NCO1CLK equ 049Fh ;# 
# 5751 "C:\Program Files (x86)\Microchip\xc8\v1.41\include\pic16f18313.h"
PWM5DCL equ 0617h ;# 
# 5786 "C:\Program Files (x86)\Microchip\xc8\v1.41\include\pic16f18313.h"
PWM5DCH equ 0618h ;# 
# 5855 "C:\Program Files (x86)\Microchip\xc8\v1.41\include\pic16f18313.h"
PWM5CON equ 0619h ;# 
# 5860 "C:\Program Files (x86)\Microchip\xc8\v1.41\include\pic16f18313.h"
PWM5CON0 equ 0619h ;# 
# 5920 "C:\Program Files (x86)\Microchip\xc8\v1.41\include\pic16f18313.h"
PWM6DCL equ 061Ah ;# 
# 5955 "C:\Program Files (x86)\Microchip\xc8\v1.41\include\pic16f18313.h"
PWM6DCH equ 061Bh ;# 
# 6024 "C:\Program Files (x86)\Microchip\xc8\v1.41\include\pic16f18313.h"
PWM6CON equ 061Ch ;# 
# 6029 "C:\Program Files (x86)\Microchip\xc8\v1.41\include\pic16f18313.h"
PWM6CON0 equ 061Ch ;# 
# 6089 "C:\Program Files (x86)\Microchip\xc8\v1.41\include\pic16f18313.h"
CWG1CLKCON equ 0691h ;# 
# 6116 "C:\Program Files (x86)\Microchip\xc8\v1.41\include\pic16f18313.h"
CWG1DAT equ 0692h ;# 
# 6161 "C:\Program Files (x86)\Microchip\xc8\v1.41\include\pic16f18313.h"
CWG1DBR equ 0693h ;# 
# 6264 "C:\Program Files (x86)\Microchip\xc8\v1.41\include\pic16f18313.h"
CWG1DBF equ 0694h ;# 
# 6367 "C:\Program Files (x86)\Microchip\xc8\v1.41\include\pic16f18313.h"
CWG1CON0 equ 0695h ;# 
# 6467 "C:\Program Files (x86)\Microchip\xc8\v1.41\include\pic16f18313.h"
CWG1CON1 equ 0696h ;# 
# 6544 "C:\Program Files (x86)\Microchip\xc8\v1.41\include\pic16f18313.h"
CWG1AS0 equ 0697h ;# 
# 6663 "C:\Program Files (x86)\Microchip\xc8\v1.41\include\pic16f18313.h"
CWG1AS1 equ 0698h ;# 
# 6695 "C:\Program Files (x86)\Microchip\xc8\v1.41\include\pic16f18313.h"
CWG1STR equ 0699h ;# 
# 6806 "C:\Program Files (x86)\Microchip\xc8\v1.41\include\pic16f18313.h"
NVMADR equ 0891h ;# 
# 6811 "C:\Program Files (x86)\Microchip\xc8\v1.41\include\pic16f18313.h"
EEADR equ 0891h ;# 
# 6815 "C:\Program Files (x86)\Microchip\xc8\v1.41\include\pic16f18313.h"
PMADR equ 0891h ;# 
# 6821 "C:\Program Files (x86)\Microchip\xc8\v1.41\include\pic16f18313.h"
NVMADRL equ 0891h ;# 
# 6826 "C:\Program Files (x86)\Microchip\xc8\v1.41\include\pic16f18313.h"
EEADRL equ 0891h ;# 
# 6830 "C:\Program Files (x86)\Microchip\xc8\v1.41\include\pic16f18313.h"
PMADRL equ 0891h ;# 
# 7222 "C:\Program Files (x86)\Microchip\xc8\v1.41\include\pic16f18313.h"
NVMADRH equ 0892h ;# 
# 7227 "C:\Program Files (x86)\Microchip\xc8\v1.41\include\pic16f18313.h"
EEADRH equ 0892h ;# 
# 7231 "C:\Program Files (x86)\Microchip\xc8\v1.41\include\pic16f18313.h"
PMADRH equ 0892h ;# 
# 7569 "C:\Program Files (x86)\Microchip\xc8\v1.41\include\pic16f18313.h"
NVMDAT equ 0893h ;# 
# 7574 "C:\Program Files (x86)\Microchip\xc8\v1.41\include\pic16f18313.h"
EEDAT equ 0893h ;# 
# 7578 "C:\Program Files (x86)\Microchip\xc8\v1.41\include\pic16f18313.h"
PMDAT equ 0893h ;# 
# 7584 "C:\Program Files (x86)\Microchip\xc8\v1.41\include\pic16f18313.h"
NVMDATL equ 0893h ;# 
# 7589 "C:\Program Files (x86)\Microchip\xc8\v1.41\include\pic16f18313.h"
EEDATL equ 0893h ;# 
# 7593 "C:\Program Files (x86)\Microchip\xc8\v1.41\include\pic16f18313.h"
PMDATL equ 0893h ;# 
# 7985 "C:\Program Files (x86)\Microchip\xc8\v1.41\include\pic16f18313.h"
NVMDATH equ 0894h ;# 
# 7990 "C:\Program Files (x86)\Microchip\xc8\v1.41\include\pic16f18313.h"
EEDATH equ 0894h ;# 
# 7994 "C:\Program Files (x86)\Microchip\xc8\v1.41\include\pic16f18313.h"
PMDATH equ 0894h ;# 
# 8314 "C:\Program Files (x86)\Microchip\xc8\v1.41\include\pic16f18313.h"
NVMCON1 equ 0895h ;# 
# 8319 "C:\Program Files (x86)\Microchip\xc8\v1.41\include\pic16f18313.h"
EECON1 equ 0895h ;# 
# 8323 "C:\Program Files (x86)\Microchip\xc8\v1.41\include\pic16f18313.h"
PMCON1 equ 0895h ;# 
# 8502 "C:\Program Files (x86)\Microchip\xc8\v1.41\include\pic16f18313.h"
NVMCON2 equ 0896h ;# 
# 8507 "C:\Program Files (x86)\Microchip\xc8\v1.41\include\pic16f18313.h"
EECON2 equ 0896h ;# 
# 8511 "C:\Program Files (x86)\Microchip\xc8\v1.41\include\pic16f18313.h"
PMCON2 equ 0896h ;# 
# 8603 "C:\Program Files (x86)\Microchip\xc8\v1.41\include\pic16f18313.h"
PCON0 equ 089Bh ;# 
# 8659 "C:\Program Files (x86)\Microchip\xc8\v1.41\include\pic16f18313.h"
PMD0 equ 0911h ;# 
# 8703 "C:\Program Files (x86)\Microchip\xc8\v1.41\include\pic16f18313.h"
PMD1 equ 0912h ;# 
# 8741 "C:\Program Files (x86)\Microchip\xc8\v1.41\include\pic16f18313.h"
PMD2 equ 0913h ;# 
# 8774 "C:\Program Files (x86)\Microchip\xc8\v1.41\include\pic16f18313.h"
PMD3 equ 0914h ;# 
# 8818 "C:\Program Files (x86)\Microchip\xc8\v1.41\include\pic16f18313.h"
PMD4 equ 0915h ;# 
# 8845 "C:\Program Files (x86)\Microchip\xc8\v1.41\include\pic16f18313.h"
PMD5 equ 0916h ;# 
# 8876 "C:\Program Files (x86)\Microchip\xc8\v1.41\include\pic16f18313.h"
CPUDOZE equ 0918h ;# 
# 8940 "C:\Program Files (x86)\Microchip\xc8\v1.41\include\pic16f18313.h"
OSCCON1 equ 0919h ;# 
# 9009 "C:\Program Files (x86)\Microchip\xc8\v1.41\include\pic16f18313.h"
OSCCON2 equ 091Ah ;# 
# 9078 "C:\Program Files (x86)\Microchip\xc8\v1.41\include\pic16f18313.h"
OSCCON3 equ 091Bh ;# 
# 9122 "C:\Program Files (x86)\Microchip\xc8\v1.41\include\pic16f18313.h"
OSCSTAT1 equ 091Ch ;# 
# 9173 "C:\Program Files (x86)\Microchip\xc8\v1.41\include\pic16f18313.h"
OSCEN equ 091Dh ;# 
# 9218 "C:\Program Files (x86)\Microchip\xc8\v1.41\include\pic16f18313.h"
OSCTUNE equ 091Eh ;# 
# 9275 "C:\Program Files (x86)\Microchip\xc8\v1.41\include\pic16f18313.h"
OSCFRQ equ 091Fh ;# 
# 9320 "C:\Program Files (x86)\Microchip\xc8\v1.41\include\pic16f18313.h"
PPSLOCK equ 0E0Fh ;# 
# 9339 "C:\Program Files (x86)\Microchip\xc8\v1.41\include\pic16f18313.h"
INTPPS equ 0E10h ;# 
# 9390 "C:\Program Files (x86)\Microchip\xc8\v1.41\include\pic16f18313.h"
T0CKIPPS equ 0E11h ;# 
# 9441 "C:\Program Files (x86)\Microchip\xc8\v1.41\include\pic16f18313.h"
T1CKIPPS equ 0E12h ;# 
# 9492 "C:\Program Files (x86)\Microchip\xc8\v1.41\include\pic16f18313.h"
T1GPPS equ 0E13h ;# 
# 9543 "C:\Program Files (x86)\Microchip\xc8\v1.41\include\pic16f18313.h"
CCP1PPS equ 0E14h ;# 
# 9594 "C:\Program Files (x86)\Microchip\xc8\v1.41\include\pic16f18313.h"
CCP2PPS equ 0E15h ;# 
# 9645 "C:\Program Files (x86)\Microchip\xc8\v1.41\include\pic16f18313.h"
CWG1PPS equ 0E18h ;# 
# 9696 "C:\Program Files (x86)\Microchip\xc8\v1.41\include\pic16f18313.h"
MDCIN1PPS equ 0E1Ah ;# 
# 9747 "C:\Program Files (x86)\Microchip\xc8\v1.41\include\pic16f18313.h"
MDCIN2PPS equ 0E1Bh ;# 
# 9798 "C:\Program Files (x86)\Microchip\xc8\v1.41\include\pic16f18313.h"
MDMINPPS equ 0E1Ch ;# 
# 9849 "C:\Program Files (x86)\Microchip\xc8\v1.41\include\pic16f18313.h"
SSP1CLKPPS equ 0E20h ;# 
# 9900 "C:\Program Files (x86)\Microchip\xc8\v1.41\include\pic16f18313.h"
SSP1DATPPS equ 0E21h ;# 
# 9951 "C:\Program Files (x86)\Microchip\xc8\v1.41\include\pic16f18313.h"
SSP1SSPPS equ 0E22h ;# 
# 10002 "C:\Program Files (x86)\Microchip\xc8\v1.41\include\pic16f18313.h"
RXPPS equ 0E24h ;# 
# 10053 "C:\Program Files (x86)\Microchip\xc8\v1.41\include\pic16f18313.h"
TXPPS equ 0E25h ;# 
# 10104 "C:\Program Files (x86)\Microchip\xc8\v1.41\include\pic16f18313.h"
CLCIN0PPS equ 0E28h ;# 
# 10155 "C:\Program Files (x86)\Microchip\xc8\v1.41\include\pic16f18313.h"
CLCIN1PPS equ 0E29h ;# 
# 10206 "C:\Program Files (x86)\Microchip\xc8\v1.41\include\pic16f18313.h"
CLCIN2PPS equ 0E2Ah ;# 
# 10257 "C:\Program Files (x86)\Microchip\xc8\v1.41\include\pic16f18313.h"
CLCIN3PPS equ 0E2Bh ;# 
# 10308 "C:\Program Files (x86)\Microchip\xc8\v1.41\include\pic16f18313.h"
RA0PPS equ 0E90h ;# 
# 10359 "C:\Program Files (x86)\Microchip\xc8\v1.41\include\pic16f18313.h"
RA1PPS equ 0E91h ;# 
# 10410 "C:\Program Files (x86)\Microchip\xc8\v1.41\include\pic16f18313.h"
RA2PPS equ 0E92h ;# 
# 10461 "C:\Program Files (x86)\Microchip\xc8\v1.41\include\pic16f18313.h"
RA4PPS equ 0E94h ;# 
# 10512 "C:\Program Files (x86)\Microchip\xc8\v1.41\include\pic16f18313.h"
RA5PPS equ 0E95h ;# 
# 10563 "C:\Program Files (x86)\Microchip\xc8\v1.41\include\pic16f18313.h"
CLCDATA equ 0F0Fh ;# 
# 10588 "C:\Program Files (x86)\Microchip\xc8\v1.41\include\pic16f18313.h"
CLC1CON equ 0F10h ;# 
# 10705 "C:\Program Files (x86)\Microchip\xc8\v1.41\include\pic16f18313.h"
CLC1POL equ 0F11h ;# 
# 10782 "C:\Program Files (x86)\Microchip\xc8\v1.41\include\pic16f18313.h"
CLC1SEL0 equ 0F12h ;# 
# 10873 "C:\Program Files (x86)\Microchip\xc8\v1.41\include\pic16f18313.h"
CLC1SEL1 equ 0F13h ;# 
# 10964 "C:\Program Files (x86)\Microchip\xc8\v1.41\include\pic16f18313.h"
CLC1SEL2 equ 0F14h ;# 
# 11055 "C:\Program Files (x86)\Microchip\xc8\v1.41\include\pic16f18313.h"
CLC1SEL3 equ 0F15h ;# 
# 11146 "C:\Program Files (x86)\Microchip\xc8\v1.41\include\pic16f18313.h"
CLC1GLS0 equ 0F16h ;# 
# 11257 "C:\Program Files (x86)\Microchip\xc8\v1.41\include\pic16f18313.h"
CLC1GLS1 equ 0F17h ;# 
# 11368 "C:\Program Files (x86)\Microchip\xc8\v1.41\include\pic16f18313.h"
CLC1GLS2 equ 0F18h ;# 
# 11479 "C:\Program Files (x86)\Microchip\xc8\v1.41\include\pic16f18313.h"
CLC1GLS3 equ 0F19h ;# 
# 11590 "C:\Program Files (x86)\Microchip\xc8\v1.41\include\pic16f18313.h"
CLC2CON equ 0F1Ah ;# 
# 11707 "C:\Program Files (x86)\Microchip\xc8\v1.41\include\pic16f18313.h"
CLC2POL equ 0F1Bh ;# 
# 11784 "C:\Program Files (x86)\Microchip\xc8\v1.41\include\pic16f18313.h"
CLC2SEL0 equ 0F1Ch ;# 
# 11875 "C:\Program Files (x86)\Microchip\xc8\v1.41\include\pic16f18313.h"
CLC2SEL1 equ 0F1Dh ;# 
# 11966 "C:\Program Files (x86)\Microchip\xc8\v1.41\include\pic16f18313.h"
CLC2SEL2 equ 0F1Eh ;# 
# 12057 "C:\Program Files (x86)\Microchip\xc8\v1.41\include\pic16f18313.h"
CLC2SEL3 equ 0F1Fh ;# 
# 12148 "C:\Program Files (x86)\Microchip\xc8\v1.41\include\pic16f18313.h"
CLC2GLS0 equ 0F20h ;# 
# 12259 "C:\Program Files (x86)\Microchip\xc8\v1.41\include\pic16f18313.h"
CLC2GLS1 equ 0F21h ;# 
# 12370 "C:\Program Files (x86)\Microchip\xc8\v1.41\include\pic16f18313.h"
CLC2GLS2 equ 0F22h ;# 
# 12481 "C:\Program Files (x86)\Microchip\xc8\v1.41\include\pic16f18313.h"
CLC2GLS3 equ 0F23h ;# 
# 12592 "C:\Program Files (x86)\Microchip\xc8\v1.41\include\pic16f18313.h"
STATUS_SHAD equ 0FE4h ;# 
# 12623 "C:\Program Files (x86)\Microchip\xc8\v1.41\include\pic16f18313.h"
WREG_SHAD equ 0FE5h ;# 
# 12642 "C:\Program Files (x86)\Microchip\xc8\v1.41\include\pic16f18313.h"
BSR_SHAD equ 0FE6h ;# 
# 12661 "C:\Program Files (x86)\Microchip\xc8\v1.41\include\pic16f18313.h"
PCLATH_SHAD equ 0FE7h ;# 
# 12680 "C:\Program Files (x86)\Microchip\xc8\v1.41\include\pic16f18313.h"
FSR0L_SHAD equ 0FE8h ;# 
# 12699 "C:\Program Files (x86)\Microchip\xc8\v1.41\include\pic16f18313.h"
FSR0H_SHAD equ 0FE9h ;# 
# 12718 "C:\Program Files (x86)\Microchip\xc8\v1.41\include\pic16f18313.h"
FSR1L_SHAD equ 0FEAh ;# 
# 12737 "C:\Program Files (x86)\Microchip\xc8\v1.41\include\pic16f18313.h"
FSR1H_SHAD equ 0FEBh ;# 
# 12756 "C:\Program Files (x86)\Microchip\xc8\v1.41\include\pic16f18313.h"
STKPTR equ 0FEDh ;# 
# 12775 "C:\Program Files (x86)\Microchip\xc8\v1.41\include\pic16f18313.h"
TOSL equ 0FEEh ;# 
# 12794 "C:\Program Files (x86)\Microchip\xc8\v1.41\include\pic16f18313.h"
TOSH equ 0FEFh ;# 
	FNCALL	_main,_App_Init
	FNCALL	_main,_Chip_Init
	FNCALL	_main,_MidTick_Step
	FNCALL	_MidTick_Step,_App_Step
	FNCALL	_App_Step,_ADC_Go
	FNCALL	_App_Step,_ADC_Res
	FNCALL	_App_Step,_Noise_Step
	FNCALL	_App_Step,_Train_Step
	FNCALL	_App_Step,_Vol_1_Change
	FNCALL	_Vol_1_Change,_Train_Set_Acc
	FNCALL	_Train_Step,_Voix_Set_Speed
	FNCALL	_App_Init,_Voix_Set_Speed
	FNROOT	_main
	FNCALL	_ISR,_Voix_int_Step
	FNCALL	intlevel1,_ISR
	global	intlevel1
	FNROOT	intlevel1
	global	_down_table
	global	_Noise_Seed
	global	_Vo_2_Freq
	global	_Vo_1_Freq
	global	_Train_Speed
	global	_Vo_2_Amp
	global	_Vo_1_Amp
	global	_App_Tempo
	global	_MidTick_DivCtr
	global	_up_table
psect	idataBANK0,class=CODE,space=0,delta=2,noexec
global __pidataBANK0
__pidataBANK0:
	file	"C:\17\D\GitHub\17\PIC\1\16F18 VVVF - 01\App.c"
	line	67

;initializer for _down_table
	retlw	02Dh
	retlw	0

	retlw	033h
	retlw	0

	retlw	019h
	retlw	0

	retlw	0Fh
	retlw	0

	retlw	05h
	retlw	0

	retlw	01h
	retlw	0

	file	"C:\17\D\GitHub\17\PIC\1\16F18 VVVF - 01\Voix.c"
	line	4

;initializer for _Noise_Seed
	retlw	01h
	retlw	0
	retlw	0
	retlw	0

	line	32

;initializer for _Vo_2_Freq
	retlw	080h
	retlw	01h

	line	31

;initializer for _Vo_1_Freq
	retlw	0
	retlw	05h

	file	"C:\17\D\GitHub\17\PIC\1\16F18 VVVF - 01\App.c"
	line	110

;initializer for _Train_Speed
	retlw	0
	retlw	01h

	file	"C:\17\D\GitHub\17\PIC\1\16F18 VVVF - 01\Voix.c"
	line	35

;initializer for _Vo_2_Amp
	retlw	0FFh
	line	34

;initializer for _Vo_1_Amp
	retlw	0FFh
	file	"C:\17\D\GitHub\17\PIC\1\16F18 VVVF - 01\App.c"
	line	11

;initializer for _App_Tempo
	retlw	06Ch
	file	"C:\17\D\GitHub\17\PIC\1\16F18 VVVF - 01\Main.c"
	line	7

;initializer for _MidTick_DivCtr
	retlw	01h
psect	idataBANK1,class=CODE,space=0,delta=2,noexec
global __pidataBANK1
__pidataBANK1:
	file	"C:\17\D\GitHub\17\PIC\1\16F18 VVVF - 01\App.c"
	line	77

;initializer for _up_table
	retlw	02h
	retlw	0

	retlw	05h
	retlw	0

	retlw	0Ah
	retlw	0

	retlw	0Fh
	retlw	0

	retlw	019h
	retlw	0

	retlw	033h
	retlw	0

	retlw	025h
	retlw	0

	global	_Vol_margin
psect	stringtext,class=STRCODE,delta=2,noexec
global __pstringtext
__pstringtext:
	file	"C:\17\D\GitHub\17\PIC\1\16F18 VVVF - 01\App.c"
	line	19
_Vol_margin:
	retlw	02h
	global __end_of_Vol_margin
__end_of_Vol_margin:
	global	_Vol_margin
	global	_Vo_2_Phase
	global	_Vo_1_Phase
	global	_Vo_DC
	global	_Train_Acc
	global	_App_Tempo_Phase
	global	_LED_Ctr
	global	_Vo_2_Width
	global	_Vo_1_Width
	global	_Vo
	global	_Train_Up
	global	App_Step@phase
	global	_Vol_1_s
	global	_Vol_1
	global	_App_Noise
	global	_MidTick_Task
	global	_INTCON
_INTCON	set	0xB
	global	_T2CON
_T2CON	set	0x1F
	global	_TMR2
_TMR2	set	0x1D
	global	_PR2
_PR2	set	0x1E
	global	_TMR2IF
_TMR2IF	set	0x89
	global	_ADRESH
_ADRESH	set	0x9C
	global	_ADCON0
_ADCON0	set	0x9D
	global	_PIE1
_PIE1	set	0x91
	global	_ADCON1
_ADCON1	set	0x9E
	global	_TRISA
_TRISA	set	0x8C
	global	_LATA
_LATA	set	0x10C
	global	_ANSELA
_ANSELA	set	0x18C
	global	_CCPR1
_CCPR1	set	0x291
	global	_CCP1CON
_CCP1CON	set	0x293
	global	_OSCFRQbits
_OSCFRQbits	set	0x91F
	global	_RA5PPS
_RA5PPS	set	0xE95
; #config settings
global __CFG_FEXTOSC$OFF
__CFG_FEXTOSC$OFF equ 0x0
global __CFG_RSTOSC$HFINT32
__CFG_RSTOSC$HFINT32 equ 0x0
global __CFG_CLKOUTEN$OFF
__CFG_CLKOUTEN$OFF equ 0x0
global __CFG_CSWEN$ON
__CFG_CSWEN$ON equ 0x0
global __CFG_FCMEN$OFF
__CFG_FCMEN$OFF equ 0x0
global __CFG_MCLRE$OFF
__CFG_MCLRE$OFF equ 0x0
global __CFG_PWRTE$ON
__CFG_PWRTE$ON equ 0x0
global __CFG_WDTE$OFF
__CFG_WDTE$OFF equ 0x0
global __CFG_LPBOREN$OFF
__CFG_LPBOREN$OFF equ 0x0
global __CFG_BOREN$ON
__CFG_BOREN$ON equ 0x0
global __CFG_BORV$LOW
__CFG_BORV$LOW equ 0x0
global __CFG_PPS1WAY$OFF
__CFG_PPS1WAY$OFF equ 0x0
global __CFG_STVREN$ON
__CFG_STVREN$ON equ 0x0
global __CFG_DEBUG$OFF
__CFG_DEBUG$OFF equ 0x0
global __CFG_WRT$OFF
__CFG_WRT$OFF equ 0x0
global __CFG_LVP$OFF
__CFG_LVP$OFF equ 0x0
global __CFG_CP$OFF
__CFG_CP$OFF equ 0x0
global __CFG_CPD$OFF
__CFG_CPD$OFF equ 0x0
	file	"Output\VVVF - 01 - 16F18313.as"
	line	#
psect cinit,class=CODE,delta=2
global start_initialization
start_initialization:

global __initialization
__initialization:
psect	bssBANK0,class=BANK0,space=1,noexec
global __pbssBANK0
__pbssBANK0:
_Vo_WT_1:
       ds      8

_Vo_2_Phase:
       ds      2

_Vo_1_Phase:
       ds      2

_Vo_DC:
       ds      2

_Train_Acc:
       ds      2

_App_Output:
       ds      2

_App_Tempo_Phase:
       ds      2

_LED_Ctr:
       ds      2

_Vo_2_Width:
       ds      1

_Vo_1_Width:
       ds      1

_Vo:
       ds      1

_Train_Up:
       ds      1

App_Step@phase:
       ds      1

_Vol_1_s:
       ds      1

_Vol_1:
       ds      1

_App_Noise:
       ds      1

_MidTick_Task:
       ds      1

psect	dataBANK0,class=BANK0,space=1,noexec
global __pdataBANK0
__pdataBANK0:
	file	"C:\17\D\GitHub\17\PIC\1\16F18 VVVF - 01\App.c"
	line	67
_down_table:
       ds      12

psect	dataBANK0
	file	"C:\17\D\GitHub\17\PIC\1\16F18 VVVF - 01\Voix.c"
	line	4
_Noise_Seed:
       ds      4

psect	dataBANK0
	file	"C:\17\D\GitHub\17\PIC\1\16F18 VVVF - 01\Voix.c"
	line	32
_Vo_2_Freq:
       ds      2

psect	dataBANK0
	file	"C:\17\D\GitHub\17\PIC\1\16F18 VVVF - 01\Voix.c"
	line	31
_Vo_1_Freq:
       ds      2

psect	dataBANK0
	file	"C:\17\D\GitHub\17\PIC\1\16F18 VVVF - 01\App.c"
	line	110
_Train_Speed:
       ds      2

psect	dataBANK0
	file	"C:\17\D\GitHub\17\PIC\1\16F18 VVVF - 01\Voix.c"
	line	35
_Vo_2_Amp:
       ds      1

psect	dataBANK0
	file	"C:\17\D\GitHub\17\PIC\1\16F18 VVVF - 01\Voix.c"
	line	34
_Vo_1_Amp:
       ds      1

psect	dataBANK0
	file	"C:\17\D\GitHub\17\PIC\1\16F18 VVVF - 01\App.c"
	line	11
_App_Tempo:
       ds      1

psect	dataBANK0
	file	"C:\17\D\GitHub\17\PIC\1\16F18 VVVF - 01\Main.c"
	line	7
_MidTick_DivCtr:
       ds      1

psect	dataBANK1,class=BANK1,space=1,noexec
global __pdataBANK1
__pdataBANK1:
	file	"C:\17\D\GitHub\17\PIC\1\16F18 VVVF - 01\App.c"
	line	77
_up_table:
       ds      14

	file	"Output\VVVF - 01 - 16F18313.as"
	line	#
psect inittext,class=CODE,delta=2
global init_ram,btemp
init_ram:
	movwf btemp,f
initloop:
	moviw fsr0++
	movwi fsr1++
	decfsz btemp
	goto initloop
	retlw 0
; Initialize objects allocated to BANK0
	global __pidataBANK0,__pdataBANK0
psect cinit,class=CODE,delta=2,merge=1
	movlw low(__pidataBANK0)
	movwf fsr0l
	movlw high(__pidataBANK0)|80h
	movwf fsr0h
	movlw low(__pdataBANK0)
	movwf fsr1l
	movlw high(__pdataBANK0)
	movwf fsr1h
	movlw 01Ah
	fcall init_ram
; Initialize objects allocated to BANK1
	global __pidataBANK1,__pdataBANK1
psect cinit,class=CODE,delta=2,merge=1
	movlw low(__pidataBANK1)
	movwf fsr0l
	movlw high(__pidataBANK1)|80h
	movwf fsr0h
	movlw low(__pdataBANK1)
	movwf fsr1l
	movlw high(__pdataBANK1)
	movwf fsr1h
	movlw 0Eh
	fcall init_ram
	line	#
psect clrtext,class=CODE,delta=2
global clear_ram0
;	Called with FSR0 containing the base address, and
;	WREG with the size to clear
clear_ram0:
	clrwdt			;clear the watchdog before getting into this loop
clrloop0:
	clrf	indf0		;clear RAM location pointed to by FSR
	addfsr	0,1
	decfsz wreg		;Have we reached the end of clearing yet?
	goto clrloop0	;have we reached the end yet?
	retlw	0		;all done for this memory range, return
; Clear objects allocated to BANK0
psect cinit,class=CODE,delta=2,merge=1
	global __pbssBANK0
	movlw	low(__pbssBANK0)
	movwf	fsr0l
	movlw	high(__pbssBANK0)
	movwf	fsr0h
	movlw	01Fh
	fcall	clear_ram0
psect cinit,class=CODE,delta=2,merge=1
global end_of_initialization,__end_of__initialization

;End of C runtime variable initialization code

end_of_initialization:
__end_of__initialization:
	bcf int$flags,0 ;clear compiler interrupt flag (level 1)
movlb 0
ljmp _main	;jump to C main() function
psect	cstackCOMMON,class=COMMON,space=1,noexec
global __pcstackCOMMON
__pcstackCOMMON:
?_App_Init:	; 1 bytes @ 0x0
?_Chip_Init:	; 1 bytes @ 0x0
?_MidTick_Step:	; 1 bytes @ 0x0
?_App_Step:	; 1 bytes @ 0x0
?_Noise_Step:	; 1 bytes @ 0x0
?_ADC_Go:	; 1 bytes @ 0x0
?_ADC_Res:	; 1 bytes @ 0x0
?_Vol_1_Change:	; 1 bytes @ 0x0
?_Train_Step:	; 1 bytes @ 0x0
?_main:	; 1 bytes @ 0x0
?_ISR:	; 1 bytes @ 0x0
	global	?_Voix_int_Step
?_Voix_int_Step:	; 2 bytes @ 0x0
	ds	2
??_Voix_int_Step:	; 1 bytes @ 0x2
	ds	4
	global	_Voix_int_Step$164
_Voix_int_Step$164:	; 2 bytes @ 0x6
	ds	2
	global	_Voix_int_Step$165
_Voix_int_Step$165:	; 2 bytes @ 0x8
	ds	2
	global	Voix_int_Step@acc
Voix_int_Step@acc:	; 2 bytes @ 0xA
	ds	2
??_ISR:	; 1 bytes @ 0xC
	ds	2
psect	cstackBANK0,class=BANK0,space=1,noexec
global __pcstackBANK0
__pcstackBANK0:
??_Chip_Init:	; 1 bytes @ 0x0
?_Voix_Set_Speed:	; 1 bytes @ 0x0
??_Noise_Step:	; 1 bytes @ 0x0
??_ADC_Go:	; 1 bytes @ 0x0
??_ADC_Res:	; 1 bytes @ 0x0
?_Train_Set_Acc:	; 1 bytes @ 0x0
	global	Train_Set_Acc@acc
Train_Set_Acc@acc:	; 2 bytes @ 0x0
	global	Voix_Set_Speed@speed
Voix_Set_Speed@speed:	; 2 bytes @ 0x0
	ds	1
	global	Noise_Step@bits
Noise_Step@bits:	; 1 bytes @ 0x1
	ds	1
??_Voix_Set_Speed:	; 1 bytes @ 0x2
	global	Train_Set_Acc@up
Train_Set_Acc@up:	; 1 bytes @ 0x2
	global	Noise_Step@a
Noise_Step@a:	; 1 bytes @ 0x2
	ds	1
??_Train_Set_Acc:	; 1 bytes @ 0x3
	global	Noise_Step@b
Noise_Step@b:	; 1 bytes @ 0x3
	ds	1
??_Vol_1_Change:	; 1 bytes @ 0x4
	ds	2
	global	Vol_1_Change@s
Vol_1_Change@s:	; 1 bytes @ 0x6
	global	Voix_Set_Speed@bias
Voix_Set_Speed@bias:	; 2 bytes @ 0x6
	ds	2
	global	Voix_Set_Speed@power
Voix_Set_Speed@power:	; 2 bytes @ 0x8
	ds	2
??_App_Init:	; 1 bytes @ 0xA
??_Train_Step:	; 1 bytes @ 0xA
	ds	4
	global	Train_Step@s
Train_Step@s:	; 2 bytes @ 0xE
	ds	2
??_App_Step:	; 1 bytes @ 0x10
	ds	4
	global	App_Step@vol
App_Step@vol:	; 1 bytes @ 0x14
	ds	1
??_MidTick_Step:	; 1 bytes @ 0x15
??_main:	; 1 bytes @ 0x15
;!
;!Data Sizes:
;!    Strings     0
;!    Constant    1
;!    Data        40
;!    BSS         31
;!    Persistent  0
;!    Stack       0
;!
;!Auto Spaces:
;!    Space          Size  Autos    Used
;!    COMMON           14     14      14
;!    BANK0            80     21      78
;!    BANK1            80      0      14
;!    BANK2            80      0       0

;!
;!Pointer List with Targets:
;!
;!    None.


;!
;!Critical Paths under _main in COMMON
;!
;!    None.
;!
;!Critical Paths under _ISR in COMMON
;!
;!    _ISR->_Voix_int_Step
;!
;!Critical Paths under _main in BANK0
;!
;!    _MidTick_Step->_App_Step
;!    _App_Step->_Train_Step
;!    _Vol_1_Change->_Train_Set_Acc
;!    _Train_Step->_Voix_Set_Speed
;!    _App_Init->_Voix_Set_Speed
;!
;!Critical Paths under _ISR in BANK0
;!
;!    None.
;!
;!Critical Paths under _main in BANK1
;!
;!    None.
;!
;!Critical Paths under _ISR in BANK1
;!
;!    None.
;!
;!Critical Paths under _main in BANK2
;!
;!    None.
;!
;!Critical Paths under _ISR in BANK2
;!
;!    None.

;;
;;Main: autosize = 0, tempsize = 0, incstack = 0, save=0
;;

;!
;!Call Graph Tables:
;!
;! ---------------------------------------------------------------------------------
;! (Depth) Function   	        Calls       Base Space   Used Autos Params    Refs
;! ---------------------------------------------------------------------------------
;! (0) _main                                                 0     0      0    1315
;!                           _App_Init
;!                          _Chip_Init
;!                       _MidTick_Step
;! ---------------------------------------------------------------------------------
;! (1) _MidTick_Step                                         0     0      0     964
;!                           _App_Step
;! ---------------------------------------------------------------------------------
;! (2) _App_Step                                             5     5      0     964
;!                                             16 BANK0      5     5      0
;!                             _ADC_Go
;!                            _ADC_Res
;!                         _Noise_Step
;!                         _Train_Step
;!                       _Vol_1_Change
;! ---------------------------------------------------------------------------------
;! (3) _Vol_1_Change                                         3     3      0     411
;!                                              4 BANK0      3     3      0
;!                      _Train_Set_Acc
;! ---------------------------------------------------------------------------------
;! (4) _Train_Set_Acc                                        4     1      3     256
;!                                              0 BANK0      4     1      3
;! ---------------------------------------------------------------------------------
;! (3) _Train_Step                                           6     6      0     352
;!                                             10 BANK0      6     6      0
;!                     _Voix_Set_Speed
;! ---------------------------------------------------------------------------------
;! (3) _Noise_Step                                           4     4      0     112
;!                                              0 BANK0      4     4      0
;! ---------------------------------------------------------------------------------
;! (3) _ADC_Res                                              0     0      0       0
;! ---------------------------------------------------------------------------------
;! (3) _ADC_Go                                               0     0      0       0
;! ---------------------------------------------------------------------------------
;! (1) _Chip_Init                                            0     0      0       0
;! ---------------------------------------------------------------------------------
;! (1) _App_Init                                             0     0      0     351
;!                     _Voix_Set_Speed
;! ---------------------------------------------------------------------------------
;! (4) _Voix_Set_Speed                                      10     8      2     351
;!                                              0 BANK0     10     8      2
;! ---------------------------------------------------------------------------------
;! Estimated maximum stack depth 4
;! ---------------------------------------------------------------------------------
;! (Depth) Function   	        Calls       Base Space   Used Autos Params    Refs
;! ---------------------------------------------------------------------------------
;! (5) _ISR                                                  2     2      0      73
;!                                             12 COMMON     2     2      0
;!                      _Voix_int_Step
;! ---------------------------------------------------------------------------------
;! (6) _Voix_int_Step                                       12    10      2      73
;!                                              0 COMMON    12    10      2
;! ---------------------------------------------------------------------------------
;! Estimated maximum stack depth 6
;! ---------------------------------------------------------------------------------
;!
;! Call Graph Graphs:
;!
;! _main (ROOT)
;!   _App_Init
;!     _Voix_Set_Speed
;!   _Chip_Init
;!   _MidTick_Step
;!     _App_Step
;!       _ADC_Go
;!       _ADC_Res
;!       _Noise_Step
;!       _Train_Step
;!         _Voix_Set_Speed
;!       _Vol_1_Change
;!         _Train_Set_Acc
;!
;! _ISR (ROOT)
;!   _Voix_int_Step
;!

;! Address spaces:

;!Name               Size   Autos  Total    Cost      Usage
;!BIGRAM              F0      0       0       0        0.0%
;!EEDATA             100      0       0       0        0.0%
;!NULL                 0      0       0       0        0.0%
;!CODE                 0      0       0       0        0.0%
;!BITCOMMON            E      0       0       1        0.0%
;!BITSFR0              0      0       0       1        0.0%
;!SFR0                 0      0       0       1        0.0%
;!COMMON               E      E       E       2      100.0%
;!BITSFR1              0      0       0       2        0.0%
;!SFR1                 0      0       0       2        0.0%
;!BITSFR2              0      0       0       3        0.0%
;!SFR2                 0      0       0       3        0.0%
;!STACK                0      0       0       3        0.0%
;!BITSFR3              0      0       0       4        0.0%
;!SFR3                 0      0       0       4        0.0%
;!ABS                  0      0      6A       4        0.0%
;!BITBANK0            50      0       0       5        0.0%
;!BITSFR4              0      0       0       5        0.0%
;!SFR4                 0      0       0       5        0.0%
;!BANK0               50     15      4E       6       97.5%
;!BITSFR5              0      0       0       6        0.0%
;!SFR5                 0      0       0       6        0.0%
;!BITBANK1            50      0       0       7        0.0%
;!BITSFR6              0      0       0       7        0.0%
;!SFR6                 0      0       0       7        0.0%
;!BANK1               50      0       E       8       17.5%
;!BITSFR7              0      0       0       8        0.0%
;!SFR7                 0      0       0       8        0.0%
;!BITBANK2            50      0       0       9        0.0%
;!BITSFR8              0      0       0       9        0.0%
;!SFR8                 0      0       0       9        0.0%
;!BANK2               50      0       0      10        0.0%
;!BITSFR9              0      0       0      10        0.0%
;!SFR9                 0      0       0      10        0.0%
;!BITSFR10             0      0       0      11        0.0%
;!SFR10                0      0       0      11        0.0%
;!DATA                 0      0      6A      11        0.0%
;!BITSFR11             0      0       0      12        0.0%
;!SFR11                0      0       0      12        0.0%
;!BITSFR12             0      0       0      13        0.0%
;!SFR12                0      0       0      13        0.0%
;!BITSFR13             0      0       0      14        0.0%
;!SFR13                0      0       0      14        0.0%
;!BITSFR14             0      0       0      15        0.0%
;!SFR14                0      0       0      15        0.0%
;!BITSFR15             0      0       0      16        0.0%
;!SFR15                0      0       0      16        0.0%
;!BITSFR16             0      0       0      17        0.0%
;!SFR16                0      0       0      17        0.0%
;!BITSFR17             0      0       0      18        0.0%
;!SFR17                0      0       0      18        0.0%
;!BITSFR18             0      0       0      19        0.0%
;!SFR18                0      0       0      19        0.0%
;!BITSFR19             0      0       0      20        0.0%
;!SFR19                0      0       0      20        0.0%
;!BITSFR20             0      0       0      21        0.0%
;!SFR20                0      0       0      21        0.0%
;!BITSFR21             0      0       0      22        0.0%
;!SFR21                0      0       0      22        0.0%
;!BITSFR22             0      0       0      23        0.0%
;!SFR22                0      0       0      23        0.0%
;!BITSFR23             0      0       0      24        0.0%
;!SFR23                0      0       0      24        0.0%
;!BITSFR24             0      0       0      25        0.0%
;!SFR24                0      0       0      25        0.0%
;!BITSFR25             0      0       0      26        0.0%
;!SFR25                0      0       0      26        0.0%
;!BITSFR26             0      0       0      27        0.0%
;!SFR26                0      0       0      27        0.0%
;!BITSFR27             0      0       0      28        0.0%
;!SFR27                0      0       0      28        0.0%
;!BITSFR28             0      0       0      29        0.0%
;!SFR28                0      0       0      29        0.0%
;!BITSFR29             0      0       0      30        0.0%
;!SFR29                0      0       0      30        0.0%
;!BITSFR30             0      0       0      31        0.0%
;!SFR30                0      0       0      31        0.0%
;!BITSFR31             0      0       0      32        0.0%
;!SFR31                0      0       0      32        0.0%

	global	_main

;; *************** function _main *****************
;; Defined at:
;;		line 13 in file "C:\17\D\GitHub\17\PIC\1\16F18 VVVF - 01\Main.c"
;; Parameters:    Size  Location     Type
;;		None
;; Auto vars:     Size  Location     Type
;;		None
;; Return value:  Size  Location     Type
;;                  1    wreg      void 
;; Registers used:
;;		wreg, fsr0l, fsr0h, fsr1l, fsr1h, status,2, status,0, pclath, cstack
;; Tracked objects:
;;		On entry : B1F/0
;;		On exit  : 0/0
;;		Unchanged: 0/0
;; Data sizes:     COMMON   BANK0   BANK1   BANK2
;;      Params:         0       0       0       0
;;      Locals:         0       0       0       0
;;      Temps:          0       0       0       0
;;      Totals:         0       0       0       0
;;Total ram usage:        0 bytes
;; Hardware stack levels required when called:    6
;; This function calls:
;;		_App_Init
;;		_Chip_Init
;;		_MidTick_Step
;; This function is called by:
;;		Startup code after reset
;; This function uses a non-reentrant model
;;
psect	maintext,global,class=CODE,delta=2,merge=1,split=1,group=0
	file	"C:\17\D\GitHub\17\PIC\1\16F18 VVVF - 01\Main.c"
	line	13
global __pmaintext
__pmaintext:	;psect for function _main
psect	maintext
	file	"C:\17\D\GitHub\17\PIC\1\16F18 VVVF - 01\Main.c"
	line	13
	global	__size_of_main
	__size_of_main	equ	__end_of_main-_main
	
_main:	
;incstack = 0
	opt	stack 10
; Regs used in _main: [wreg-fsr1h+status,2+status,0+pclath+cstack]
	line	15
	
l1041:	
;Main.c: 15: App_Init();
	fcall	_App_Init
	line	16
;Main.c: 16: Chip_Init();
	fcall	_Chip_Init
	goto	l1043
	line	19
;Main.c: 19: while( 1 )
	
l23:	
	line	21
	
l1043:	
;Main.c: 20: {
;Main.c: 21: if( MidTick_Task )
	movlb 0	; select bank0
	movf	((_MidTick_Task)),w
	btfsc	status,2
	goto	u741
	goto	u740
u741:
	goto	l1043
u740:
	line	23
	
l1045:	
;Main.c: 22: {
;Main.c: 23: MidTick_Task --;
	movlw	01h
	subwf	(_MidTick_Task),f
	line	24
	
l1047:	
;Main.c: 24: MidTick_Step();
	fcall	_MidTick_Step
	goto	l1043
	line	25
	
l24:	
	goto	l1043
	line	26
	
l25:	
	line	19
	goto	l1043
	
l26:	
	line	28
	
l27:	
	global	start
	ljmp	start
	opt stack 0
GLOBAL	__end_of_main
	__end_of_main:
	signat	_main,89
	global	_MidTick_Step

;; *************** function _MidTick_Step *****************
;; Defined at:
;;		line 31 in file "C:\17\D\GitHub\17\PIC\1\16F18 VVVF - 01\Main.c"
;; Parameters:    Size  Location     Type
;;		None
;; Auto vars:     Size  Location     Type
;;		None
;; Return value:  Size  Location     Type
;;                  1    wreg      void 
;; Registers used:
;;		wreg, fsr0l, fsr0h, fsr1l, fsr1h, status,2, status,0, pclath, cstack
;; Tracked objects:
;;		On entry : 0/0
;;		On exit  : 0/0
;;		Unchanged: 0/0
;; Data sizes:     COMMON   BANK0   BANK1   BANK2
;;      Params:         0       0       0       0
;;      Locals:         0       0       0       0
;;      Temps:          0       0       0       0
;;      Totals:         0       0       0       0
;;Total ram usage:        0 bytes
;; Hardware stack levels used:    1
;; Hardware stack levels required when called:    5
;; This function calls:
;;		_App_Step
;; This function is called by:
;;		_main
;; This function uses a non-reentrant model
;;
psect	text1,local,class=CODE,delta=2,merge=1,group=0
	line	31
global __ptext1
__ptext1:	;psect for function _MidTick_Step
psect	text1
	file	"C:\17\D\GitHub\17\PIC\1\16F18 VVVF - 01\Main.c"
	line	31
	global	__size_of_MidTick_Step
	__size_of_MidTick_Step	equ	__end_of_MidTick_Step-_MidTick_Step
	
_MidTick_Step:	
;incstack = 0
	opt	stack 10
; Regs used in _MidTick_Step: [wreg-fsr1h+status,2+status,0+pclath+cstack]
	line	33
	
l1017:	
;Main.c: 33: LED_Ctr += 33;
	movlw	021h
	movlb 0	; select bank0
	addwf	(_LED_Ctr),f
	movlw	0
	addwfc	(_LED_Ctr+1),f
	line	36
	
l1019:	
;Main.c: 36: App_Step();
	fcall	_App_Step
	line	37
	
l30:	
	return
	opt stack 0
GLOBAL	__end_of_MidTick_Step
	__end_of_MidTick_Step:
	signat	_MidTick_Step,89
	global	_App_Step

;; *************** function _App_Step *****************
;; Defined at:
;;		line 27 in file "C:\17\D\GitHub\17\PIC\1\16F18 VVVF - 01\App.c"
;; Parameters:    Size  Location     Type
;;		None
;; Auto vars:     Size  Location     Type
;;  vol             1   20[BANK0 ] unsigned char 
;; Return value:  Size  Location     Type
;;                  1    wreg      void 
;; Registers used:
;;		wreg, fsr0l, fsr0h, fsr1l, fsr1h, status,2, status,0, pclath, cstack
;; Tracked objects:
;;		On entry : 0/0
;;		On exit  : 0/0
;;		Unchanged: 0/0
;; Data sizes:     COMMON   BANK0   BANK1   BANK2
;;      Params:         0       0       0       0
;;      Locals:         0       1       0       0
;;      Temps:          0       4       0       0
;;      Totals:         0       5       0       0
;;Total ram usage:        5 bytes
;; Hardware stack levels used:    1
;; Hardware stack levels required when called:    4
;; This function calls:
;;		_ADC_Go
;;		_ADC_Res
;;		_Noise_Step
;;		_Train_Step
;;		_Vol_1_Change
;; This function is called by:
;;		_MidTick_Step
;; This function uses a non-reentrant model
;;
psect	text2,local,class=CODE,delta=2,merge=1,group=0
	file	"C:\17\D\GitHub\17\PIC\1\16F18 VVVF - 01\App.c"
	line	27
global __ptext2
__ptext2:	;psect for function _App_Step
psect	text2
	file	"C:\17\D\GitHub\17\PIC\1\16F18 VVVF - 01\App.c"
	line	27
	global	__size_of_App_Step
	__size_of_App_Step	equ	__end_of_App_Step-_App_Step
	
_App_Step:	
;incstack = 0
	opt	stack 10
; Regs used in _App_Step: [wreg-fsr1h+status,2+status,0+pclath+cstack]
	line	31
	
l957:	
;App.c: 29: static uint8 phase = 0;
;App.c: 31: App_Noise = Noise_Step( 4 ) & 0xFF;
	movlw	low(04h)
	fcall	_Noise_Step
	movlb 0	; select bank0
	movwf	(??_App_Step+0)+0
	movf	(??_App_Step+0)+0,w
	movwf	(_App_Noise)
	line	32
	
l959:	
;App.c: 32: App_Tempo_Phase += App_Tempo;
	movf	(_App_Tempo),w
	movwf	(??_App_Step+0)+0
	clrf	(??_App_Step+0)+0+1
	movf	0+(??_App_Step+0)+0,w
	addwf	(_App_Tempo_Phase),f
	movf	1+(??_App_Step+0)+0,w
	addwfc	(_App_Tempo_Phase+1),f
	line	34
	
l961:	
;App.c: 34: if( App_Tempo_Phase >= 2500 )
	movlw	09h
	subwf	(_App_Tempo_Phase+1),w
	movlw	0C4h
	skipnz
	subwf	(_App_Tempo_Phase),w
	skipc
	goto	u681
	goto	u680
u681:
	goto	l987
u680:
	line	36
	
l963:	
;App.c: 35: {
;App.c: 36: App_Tempo_Phase -= 2500;
	movlw	0C4h
	subwf	(_App_Tempo_Phase),f
	movlw	09h
	subwfb	(_App_Tempo_Phase+1),f
	goto	l987
	line	37
	
l71:	
	line	40
;App.c: 37: }
;App.c: 39: uint8 vol;
;App.c: 40: switch( phase ++ )
	goto	l987
	line	42
;App.c: 41: {
;App.c: 42: case 0:
	
l73:	
	line	43
	
l965:	
;App.c: 43: ADC_Go();
	fcall	_ADC_Go
	line	44
;App.c: 44: break;
	goto	l79
	line	46
;App.c: 46: case 1:
	
l75:	
	line	47
	
l967:	
;App.c: 47: vol = ADC_Res();
	fcall	_ADC_Res
	movlb 0	; select bank0
	movwf	(??_App_Step+0)+0
	movf	(??_App_Step+0)+0,w
	movwf	(App_Step@vol)
	line	48
	
l969:	
;App.c: 48: if( vol > ( Vol_1 + Vol_margin ) )
	movlw	low(_Vol_margin|8000h)
	movwf	fsr0l
	movlw	high(_Vol_margin|8000h)
	movwf	fsr0h
	movf	indf0,w ;code access
	movwf	(??_App_Step+0)+0
	movf	(_Vol_1),w
	addwf	(??_App_Step+0)+0,w
	movwf	(??_App_Step+1)+0
	clrf	(??_App_Step+1)+0+1
	rlf	1+(??_App_Step+1)+0,f
	
	movf	1+(??_App_Step+1)+0,w
	xorlw	80h
	movwf	(??_App_Step+3)+0
	movlw	80h
	subwf	(??_App_Step+3)+0,w
	skipz
	goto	u695
	movf	(App_Step@vol),w
	subwf	0+(??_App_Step+1)+0,w
u695:

	skipnc
	goto	u691
	goto	u690
u691:
	goto	l975
u690:
	line	50
	
l971:	
;App.c: 49: {
;App.c: 50: Vol_1 = vol - Vol_margin;
	movlw	low(_Vol_margin|8000h)
	movwf	fsr0l
	movlw	high(_Vol_margin|8000h)
	movwf	fsr0h
	movf	indf0,w ;code access
	xorlw	0ffh
	addlw	1
	movlb 0	; select bank0
	addwf	(App_Step@vol),w
	movwf	(??_App_Step+0)+0
	movf	(??_App_Step+0)+0,w
	movwf	(_Vol_1)
	line	51
	
l973:	
;App.c: 51: Vol_1_Change();
	fcall	_Vol_1_Change
	goto	l975
	line	52
	
l76:	
	line	53
	
l975:	
;App.c: 52: }
;App.c: 53: if( vol < Vol_1 )
	movlb 0	; select bank0
	movf	(_Vol_1),w
	subwf	(App_Step@vol),w
	skipnc
	goto	u701
	goto	u700
u701:
	goto	l981
u700:
	line	55
	
l977:	
;App.c: 54: {
;App.c: 55: Vol_1 = vol;
	movf	(App_Step@vol),w
	movwf	(??_App_Step+0)+0
	movf	(??_App_Step+0)+0,w
	movwf	(_Vol_1)
	line	56
	
l979:	
;App.c: 56: Vol_1_Change();
	fcall	_Vol_1_Change
	goto	l981
	line	57
	
l77:	
	line	58
	
l981:	
;App.c: 57: }
;App.c: 58: Train_Step();
	fcall	_Train_Step
	line	59
;App.c: 59: break;
	goto	l79
	line	61
;App.c: 61: case 19:
	
l78:	
	line	62
	
l983:	
;App.c: 62: phase = 0;
	movlb 0	; select bank0
	clrf	(App_Step@phase)
	line	63
;App.c: 63: break;
	goto	l79
	line	64
	
l985:	
;App.c: 64: }
	goto	l79
	line	40
	
l72:	
	
l987:	
	movf	(App_Step@phase),w
	incf	(App_Step@phase),f
	; Switch size 1, requested type "space"
; Number of cases is 3, Range of values is 0 to 19
; switch strategies available:
; Name         Instructions Cycles
; simple_byte           10     6 (average)
; direct_byte           46     6 (fixed)
; jumptable            260     6 (fixed)
;	Chosen strategy is simple_byte

	opt asmopt_push
	opt asmopt_off
	xorlw	0^0	; case 0
	skipnz
	goto	l965
	xorlw	1^0	; case 1
	skipnz
	goto	l967
	xorlw	19^1	; case 19
	skipnz
	goto	l983
	goto	l79
	opt asmopt_pop

	line	64
	
l74:	
	line	65
	
l79:	
	return
	opt stack 0
GLOBAL	__end_of_App_Step
	__end_of_App_Step:
	signat	_App_Step,89
	global	_Vol_1_Change

;; *************** function _Vol_1_Change *****************
;; Defined at:
;;		line 88 in file "C:\17\D\GitHub\17\PIC\1\16F18 VVVF - 01\App.c"
;; Parameters:    Size  Location     Type
;;		None
;; Auto vars:     Size  Location     Type
;;  s               1    6[BANK0 ] unsigned char 
;; Return value:  Size  Location     Type
;;                  1    wreg      void 
;; Registers used:
;;		wreg, fsr1l, fsr1h, status,2, status,0, pclath, cstack
;; Tracked objects:
;;		On entry : 0/0
;;		On exit  : 0/0
;;		Unchanged: 0/0
;; Data sizes:     COMMON   BANK0   BANK1   BANK2
;;      Params:         0       0       0       0
;;      Locals:         0       1       0       0
;;      Temps:          0       2       0       0
;;      Totals:         0       3       0       0
;;Total ram usage:        3 bytes
;; Hardware stack levels used:    1
;; Hardware stack levels required when called:    3
;; This function calls:
;;		_Train_Set_Acc
;; This function is called by:
;;		_App_Step
;; This function uses a non-reentrant model
;;
psect	text3,local,class=CODE,delta=2,merge=1,group=0
	line	88
global __ptext3
__ptext3:	;psect for function _Vol_1_Change
psect	text3
	file	"C:\17\D\GitHub\17\PIC\1\16F18 VVVF - 01\App.c"
	line	88
	global	__size_of_Vol_1_Change
	__size_of_Vol_1_Change	equ	__end_of_Vol_1_Change-_Vol_1_Change
	
_Vol_1_Change:	
;incstack = 0
	opt	stack 10
; Regs used in _Vol_1_Change: [wreg+fsr1l+fsr1h+status,2+status,0+pclath+cstack]
	line	90
	
l921:	
;App.c: 90: uint8 s = Vol_1 >> 4;
	movlb 0	; select bank0
	movf	(_Vol_1),w
	movwf	(??_Vol_1_Change+0)+0
	movlw	04h
u605:
	lsrf	(??_Vol_1_Change+0)+0,f
	decfsz	wreg,f
	goto	u605
	movf	0+(??_Vol_1_Change+0)+0,w
	movwf	(??_Vol_1_Change+1)+0
	movf	(??_Vol_1_Change+1)+0,w
	movwf	(Vol_1_Change@s)
	line	91
	
l923:	
;App.c: 91: if( s == Vol_1_s ) return;
	movf	(Vol_1_Change@s),w
	xorwf	(_Vol_1_s),w
	skipz
	goto	u611
	goto	u610
u611:
	goto	l927
u610:
	goto	l87
	
l925:	
	goto	l87
	
l86:	
	line	92
	
l927:	
;App.c: 92: Vol_1_s = s;
	movf	(Vol_1_Change@s),w
	movwf	(??_Vol_1_Change+0)+0
	movf	(??_Vol_1_Change+0)+0,w
	movwf	(_Vol_1_s)
	line	94
;App.c: 94: if( s > 8 )
	movlw	low(09h)
	subwf	(Vol_1_Change@s),w
	skipc
	goto	u621
	goto	u620
u621:
	goto	l931
u620:
	line	96
	
l929:	
;App.c: 95: {
;App.c: 96: Train_Set_Acc( up_table[ s - 9 ], 1 );
	lslf	(Vol_1_Change@s),w
	addlw	0EEh
	addlw	low(_up_table|((0x0)<<8))&0ffh
	movwf	fsr1l
	clrf fsr1h	
	
	moviw	[0]fsr1
	movwf	(Train_Set_Acc@acc)
	moviw	[1]fsr1
	movwf	(Train_Set_Acc@acc+1)
	clrf	(Train_Set_Acc@up)
	incf	(Train_Set_Acc@up),f
	fcall	_Train_Set_Acc
	line	97
;App.c: 97: }
	goto	l87
	line	98
	
l88:	
	
l931:	
;App.c: 98: else if( s < 2 )
	movlw	low(02h)
	movlb 0	; select bank0
	subwf	(Vol_1_Change@s),w
	skipnc
	goto	u631
	goto	u630
u631:
	goto	l935
u630:
	goto	l87
	line	100
	
l933:	
;App.c: 99: {
;App.c: 100: }
	goto	l87
	line	101
	
l90:	
	
l935:	
;App.c: 101: else if( s < 8 )
	movlw	low(08h)
	subwf	(Vol_1_Change@s),w
	skipnc
	goto	u641
	goto	u640
u641:
	goto	l87
u640:
	line	103
	
l937:	
;App.c: 102: {
;App.c: 103: Train_Set_Acc( down_table[ s - 2 ], 0 );
	lslf	(Vol_1_Change@s),w
	addlw	0FCh
	addlw	low(_down_table|((0x0)<<8))&0ffh
	movwf	fsr1l
	clrf fsr1h	
	
	moviw	[0]fsr1
	movwf	(Train_Set_Acc@acc)
	moviw	[1]fsr1
	movwf	(Train_Set_Acc@acc+1)
	clrf	(Train_Set_Acc@up)
	fcall	_Train_Set_Acc
	goto	l87
	line	104
	
l92:	
	goto	l87
	line	106
	
l91:	
	goto	l87
	
l89:	
	
l87:	
	return
	opt stack 0
GLOBAL	__end_of_Vol_1_Change
	__end_of_Vol_1_Change:
	signat	_Vol_1_Change,89
	global	_Train_Set_Acc

;; *************** function _Train_Set_Acc *****************
;; Defined at:
;;		line 114 in file "C:\17\D\GitHub\17\PIC\1\16F18 VVVF - 01\App.c"
;; Parameters:    Size  Location     Type
;;  acc             2    0[BANK0 ] unsigned short 
;;  up              1    2[BANK0 ] unsigned char 
;; Auto vars:     Size  Location     Type
;;		None
;; Return value:  Size  Location     Type
;;                  1    wreg      void 
;; Registers used:
;;		wreg
;; Tracked objects:
;;		On entry : 0/0
;;		On exit  : 0/0
;;		Unchanged: 0/0
;; Data sizes:     COMMON   BANK0   BANK1   BANK2
;;      Params:         0       3       0       0
;;      Locals:         0       0       0       0
;;      Temps:          0       1       0       0
;;      Totals:         0       4       0       0
;;Total ram usage:        4 bytes
;; Hardware stack levels used:    1
;; Hardware stack levels required when called:    2
;; This function calls:
;;		Nothing
;; This function is called by:
;;		_Vol_1_Change
;; This function uses a non-reentrant model
;;
psect	text4,local,class=CODE,delta=2,merge=1,group=0
	line	114
global __ptext4
__ptext4:	;psect for function _Train_Set_Acc
psect	text4
	file	"C:\17\D\GitHub\17\PIC\1\16F18 VVVF - 01\App.c"
	line	114
	global	__size_of_Train_Set_Acc
	__size_of_Train_Set_Acc	equ	__end_of_Train_Set_Acc-_Train_Set_Acc
	
_Train_Set_Acc:	
;incstack = 0
	opt	stack 10
; Regs used in _Train_Set_Acc: [wreg]
	line	116
	
l891:	
;App.c: 116: Train_Acc = acc;
	movlb 0	; select bank0
	movf	(Train_Set_Acc@acc+1),w
	movwf	(_Train_Acc+1)
	movf	(Train_Set_Acc@acc),w
	movwf	(_Train_Acc)
	line	117
;App.c: 117: Train_Up = up;
	movf	(Train_Set_Acc@up),w
	movwf	(??_Train_Set_Acc+0)+0
	movf	(??_Train_Set_Acc+0)+0,w
	movwf	(_Train_Up)
	line	118
	
l101:	
	return
	opt stack 0
GLOBAL	__end_of_Train_Set_Acc
	__end_of_Train_Set_Acc:
	signat	_Train_Set_Acc,8313
	global	_Train_Step

;; *************** function _Train_Step *****************
;; Defined at:
;;		line 120 in file "C:\17\D\GitHub\17\PIC\1\16F18 VVVF - 01\App.c"
;; Parameters:    Size  Location     Type
;;		None
;; Auto vars:     Size  Location     Type
;;  s               2   14[BANK0 ] unsigned short 
;; Return value:  Size  Location     Type
;;                  1    wreg      void 
;; Registers used:
;;		wreg, status,2, status,0, pclath, cstack
;; Tracked objects:
;;		On entry : 0/0
;;		On exit  : 0/0
;;		Unchanged: 0/0
;; Data sizes:     COMMON   BANK0   BANK1   BANK2
;;      Params:         0       0       0       0
;;      Locals:         0       2       0       0
;;      Temps:          0       4       0       0
;;      Totals:         0       6       0       0
;;Total ram usage:        6 bytes
;; Hardware stack levels used:    1
;; Hardware stack levels required when called:    3
;; This function calls:
;;		_Voix_Set_Speed
;; This function is called by:
;;		_App_Step
;; This function uses a non-reentrant model
;;
psect	text5,local,class=CODE,delta=2,merge=1,group=0
	line	120
global __ptext5
__ptext5:	;psect for function _Train_Step
psect	text5
	file	"C:\17\D\GitHub\17\PIC\1\16F18 VVVF - 01\App.c"
	line	120
	global	__size_of_Train_Step
	__size_of_Train_Step	equ	__end_of_Train_Step-_Train_Step
	
_Train_Step:	
;incstack = 0
	opt	stack 10
; Regs used in _Train_Step: [wreg+status,2+status,0+pclath+cstack]
	line	122
	
l939:	
;App.c: 122: uint16 s = Train_Speed;
	movlb 0	; select bank0
	movf	(_Train_Speed+1),w
	movwf	(Train_Step@s+1)
	movf	(_Train_Speed),w
	movwf	(Train_Step@s)
	line	124
	
l941:	
;App.c: 124: if( Train_Up )
	movf	((_Train_Up)),w
	btfsc	status,2
	goto	u651
	goto	u650
u651:
	goto	l949
u650:
	line	126
	
l943:	
;App.c: 125: {
;App.c: 126: if( Train_Speed < ( 0xFFFF - Train_Acc ) ) Train_Speed += Train_Acc;
	comf	(_Train_Acc),w
	movwf	(??_Train_Step+0)+0
	comf	(_Train_Acc+1),w
	movwf	((??_Train_Step+0)+0+1)
	incf	(??_Train_Step+0)+0,f
	skipnz
	incf	((??_Train_Step+0)+0+1),f
	movf	0+(??_Train_Step+0)+0,w
	addlw	0FFh
	movwf	(??_Train_Step+2)+0
	movlw	0FFh
	addwfc	1+(??_Train_Step+0)+0,w
	movwf	1+(??_Train_Step+2)+0
	movf	1+(??_Train_Step+2)+0,w
	subwf	(_Train_Speed+1),w
	skipz
	goto	u665
	movf	0+(??_Train_Step+2)+0,w
	subwf	(_Train_Speed),w
u665:
	skipnc
	goto	u661
	goto	u660
u661:
	goto	l947
u660:
	
l945:	
	movf	(_Train_Acc),w
	addwf	(_Train_Speed),f
	movf	(_Train_Acc+1),w
	addwfc	(_Train_Speed+1),f
	goto	l955
	line	127
	
l105:	
	
l947:	
;App.c: 127: else Train_Speed = 0xFFFF;
	movlw	0FFh
	movwf	(_Train_Speed)
	movlw	0FFh
	movwf	((_Train_Speed))+1
	goto	l955
	
l106:	
	line	128
;App.c: 128: }
	goto	l955
	line	129
	
l104:	
	line	131
	
l949:	
;App.c: 129: else
;App.c: 130: {
;App.c: 131: if( Train_Speed > Train_Acc ) Train_Speed -= Train_Acc;
	movf	(_Train_Speed+1),w
	subwf	(_Train_Acc+1),w
	skipz
	goto	u675
	movf	(_Train_Speed),w
	subwf	(_Train_Acc),w
u675:
	skipnc
	goto	u671
	goto	u670
u671:
	goto	l953
u670:
	
l951:	
	movf	(_Train_Acc),w
	subwf	(_Train_Speed),f
	movf	(_Train_Acc+1),w
	subwfb	(_Train_Speed+1),f
	goto	l955
	line	132
	
l108:	
	
l953:	
;App.c: 132: else Train_Speed = 0;
	clrf	(_Train_Speed)
	clrf	(_Train_Speed+1)
	goto	l955
	
l109:	
	goto	l955
	line	133
	
l107:	
	line	135
	
l955:	
;App.c: 133: }
;App.c: 135: Voix_Set_Speed( Train_Speed );
	movf	(_Train_Speed+1),w
	movwf	(Voix_Set_Speed@speed+1)
	movf	(_Train_Speed),w
	movwf	(Voix_Set_Speed@speed)
	fcall	_Voix_Set_Speed
	line	136
	
l110:	
	return
	opt stack 0
GLOBAL	__end_of_Train_Step
	__end_of_Train_Step:
	signat	_Train_Step,89
	global	_Noise_Step

;; *************** function _Noise_Step *****************
;; Defined at:
;;		line 6 in file "C:\17\D\GitHub\17\PIC\1\16F18 VVVF - 01\Voix.c"
;; Parameters:    Size  Location     Type
;;  bits            1    wreg     unsigned char 
;; Auto vars:     Size  Location     Type
;;  bits            1    1[BANK0 ] unsigned char 
;;  b               1    3[BANK0 ] unsigned char 
;;  a               1    2[BANK0 ] unsigned char 
;; Return value:  Size  Location     Type
;;                  1    wreg      unsigned char 
;; Registers used:
;;		wreg, status,2, status,0
;; Tracked objects:
;;		On entry : 0/0
;;		On exit  : 0/0
;;		Unchanged: 0/0
;; Data sizes:     COMMON   BANK0   BANK1   BANK2
;;      Params:         0       0       0       0
;;      Locals:         0       3       0       0
;;      Temps:          0       1       0       0
;;      Totals:         0       4       0       0
;;Total ram usage:        4 bytes
;; Hardware stack levels used:    1
;; Hardware stack levels required when called:    2
;; This function calls:
;;		Nothing
;; This function is called by:
;;		_App_Step
;; This function uses a non-reentrant model
;;
psect	text6,local,class=CODE,delta=2,merge=1,group=0
	file	"C:\17\D\GitHub\17\PIC\1\16F18 VVVF - 01\Voix.c"
	line	6
global __ptext6
__ptext6:	;psect for function _Noise_Step
psect	text6
	file	"C:\17\D\GitHub\17\PIC\1\16F18 VVVF - 01\Voix.c"
	line	6
	global	__size_of_Noise_Step
	__size_of_Noise_Step	equ	__end_of_Noise_Step-_Noise_Step
	
_Noise_Step:	
;incstack = 0
	opt	stack 11
; Regs used in _Noise_Step: [wreg+status,2+status,0]
;Noise_Step@bits stored from wreg
	movlb 0	; select bank0
	movwf	(Noise_Step@bits)
	line	8
	
l893:	
;Voix.c: 8: while( -- bits )
	goto	l909
	
l155:	
	line	10
	
l895:	
;Voix.c: 9: {
;Voix.c: 10: Noise_Seed <<= 1;
	movlw	01h
u505:
	lslf	(_Noise_Seed),f
	rlf	(_Noise_Seed+1),f
	rlf	(_Noise_Seed+2),f
	rlf	(_Noise_Seed+3),f
	decfsz	wreg,f
	goto	u505
	line	11
	
l897:	
;Voix.c: 11: bool a = ( Noise_Seed & 0x100000 ) > 0;
	btfsc	(_Noise_Seed+2),(20)&7
	goto	u511
	goto	u510
u511:
	movlw	1
	goto	u520
u510:
	movlw	0
u520:
	movwf	(??_Noise_Step+0)+0
	movf	(??_Noise_Step+0)+0,w
	movwf	(Noise_Step@a)
	line	12
	
l899:	
;Voix.c: 12: bool b = ( Noise_Seed & 0x400000 ) > 0;
	btfsc	(_Noise_Seed+2),(22)&7
	goto	u531
	goto	u530
u531:
	movlw	1
	goto	u540
u530:
	movlw	0
u540:
	movwf	(??_Noise_Step+0)+0
	movf	(??_Noise_Step+0)+0,w
	movwf	(Noise_Step@b)
	line	14
	
l901:	
;Voix.c: 14: if( ( !a && b ) || ( a && !b ) ) Noise_Seed |= 1;
	movf	((Noise_Step@a)),w
	btfss	status,2
	goto	u551
	goto	u550
u551:
	goto	l905
u550:
	
l903:	
	movf	((Noise_Step@b)),w
	btfss	status,2
	goto	u561
	goto	u560
u561:
	goto	l158
u560:
	goto	l905
	
l160:	
	
l905:	
	movf	((Noise_Step@a)),w
	btfsc	status,2
	goto	u571
	goto	u570
u571:
	goto	l909
u570:
	
l907:	
	movf	((Noise_Step@b)),w
	btfss	status,2
	goto	u581
	goto	u580
u581:
	goto	l909
u580:
	
l158:	
	bsf	(_Noise_Seed)+(0/8),(0)&7
	goto	l909
	
l156:	
	goto	l909
	line	15
	
l154:	
	line	8
	
l909:	
	movlw	01h
	subwf	(Noise_Step@bits),f
	btfss	status,2
	goto	u591
	goto	u590
u591:
	goto	l895
u590:
	goto	l911
	
l161:	
	line	17
	
l911:	
;Voix.c: 15: }
;Voix.c: 17: return Noise_Seed;
	movf	(_Noise_Seed),w
	goto	l162
	
l913:	
	line	18
	
l162:	
	return
	opt stack 0
GLOBAL	__end_of_Noise_Step
	__end_of_Noise_Step:
	signat	_Noise_Step,4217
	global	_ADC_Res

;; *************** function _ADC_Res *****************
;; Defined at:
;;		line 115 in file "C:\17\D\GitHub\17\PIC\1\16F18 VVVF - 01\Config.c"
;; Parameters:    Size  Location     Type
;;		None
;; Auto vars:     Size  Location     Type
;;		None
;; Return value:  Size  Location     Type
;;                  1    wreg      unsigned char 
;; Registers used:
;;		wreg
;; Tracked objects:
;;		On entry : 0/0
;;		On exit  : 0/0
;;		Unchanged: 0/0
;; Data sizes:     COMMON   BANK0   BANK1   BANK2
;;      Params:         0       0       0       0
;;      Locals:         0       0       0       0
;;      Temps:          0       0       0       0
;;      Totals:         0       0       0       0
;;Total ram usage:        0 bytes
;; Hardware stack levels used:    1
;; Hardware stack levels required when called:    2
;; This function calls:
;;		Nothing
;; This function is called by:
;;		_App_Step
;; This function uses a non-reentrant model
;;
psect	text7,local,class=CODE,delta=2,merge=1,group=0
	file	"C:\17\D\GitHub\17\PIC\1\16F18 VVVF - 01\Config.c"
	line	115
global __ptext7
__ptext7:	;psect for function _ADC_Res
psect	text7
	file	"C:\17\D\GitHub\17\PIC\1\16F18 VVVF - 01\Config.c"
	line	115
	global	__size_of_ADC_Res
	__size_of_ADC_Res	equ	__end_of_ADC_Res-_ADC_Res
	
_ADC_Res:	
;incstack = 0
	opt	stack 11
; Regs used in _ADC_Res: [wreg]
	line	117
	
l917:	
;Config.c: 117: return ADRESH;
	movlb 1	; select bank1
	movf	(156)^080h,w	;volatile
	goto	l149
	
l919:	
	line	118
	
l149:	
	return
	opt stack 0
GLOBAL	__end_of_ADC_Res
	__end_of_ADC_Res:
	signat	_ADC_Res,89
	global	_ADC_Go

;; *************** function _ADC_Go *****************
;; Defined at:
;;		line 106 in file "C:\17\D\GitHub\17\PIC\1\16F18 VVVF - 01\Config.c"
;; Parameters:    Size  Location     Type
;;		None
;; Auto vars:     Size  Location     Type
;;		None
;; Return value:  Size  Location     Type
;;                  1    wreg      void 
;; Registers used:
;;		wreg
;; Tracked objects:
;;		On entry : 0/0
;;		On exit  : 0/0
;;		Unchanged: 0/0
;; Data sizes:     COMMON   BANK0   BANK1   BANK2
;;      Params:         0       0       0       0
;;      Locals:         0       0       0       0
;;      Temps:          0       0       0       0
;;      Totals:         0       0       0       0
;;Total ram usage:        0 bytes
;; Hardware stack levels used:    1
;; Hardware stack levels required when called:    2
;; This function calls:
;;		Nothing
;; This function is called by:
;;		_App_Step
;; This function uses a non-reentrant model
;;
psect	text8,local,class=CODE,delta=2,merge=1,group=0
	line	106
global __ptext8
__ptext8:	;psect for function _ADC_Go
psect	text8
	file	"C:\17\D\GitHub\17\PIC\1\16F18 VVVF - 01\Config.c"
	line	106
	global	__size_of_ADC_Go
	__size_of_ADC_Go	equ	__end_of_ADC_Go-_ADC_Go
	
_ADC_Go:	
;incstack = 0
	opt	stack 11
; Regs used in _ADC_Go: [wreg]
	line	112
	
l915:	
;Config.c: 108: ADCON0 =
;Config.c: 109: 1 << 0x0 |
;Config.c: 110: 1 << 0x1 |
;Config.c: 111: 2 << 0x2
;Config.c: 112: ;
	movlw	low(0Bh)
	movlb 1	; select bank1
	movwf	(157)^080h	;volatile
	line	113
	
l146:	
	return
	opt stack 0
GLOBAL	__end_of_ADC_Go
	__end_of_ADC_Go:
	signat	_ADC_Go,89
	global	_Chip_Init

;; *************** function _Chip_Init *****************
;; Defined at:
;;		line 58 in file "C:\17\D\GitHub\17\PIC\1\16F18 VVVF - 01\Config.c"
;; Parameters:    Size  Location     Type
;;		None
;; Auto vars:     Size  Location     Type
;;		None
;; Return value:  Size  Location     Type
;;                  1    wreg      void 
;; Registers used:
;;		wreg, status,2, status,0
;; Tracked objects:
;;		On entry : 0/0
;;		On exit  : 0/0
;;		Unchanged: 0/0
;; Data sizes:     COMMON   BANK0   BANK1   BANK2
;;      Params:         0       0       0       0
;;      Locals:         0       0       0       0
;;      Temps:          0       0       0       0
;;      Totals:         0       0       0       0
;;Total ram usage:        0 bytes
;; Hardware stack levels used:    1
;; Hardware stack levels required when called:    2
;; This function calls:
;;		Nothing
;; This function is called by:
;;		_main
;; This function uses a non-reentrant model
;;
psect	text9,local,class=CODE,delta=2,merge=1,group=0
	line	58
global __ptext9
__ptext9:	;psect for function _Chip_Init
psect	text9
	file	"C:\17\D\GitHub\17\PIC\1\16F18 VVVF - 01\Config.c"
	line	58
	global	__size_of_Chip_Init
	__size_of_Chip_Init	equ	__end_of_Chip_Init-_Chip_Init
	
_Chip_Init:	
;incstack = 0
	opt	stack 13
; Regs used in _Chip_Init: [wreg+status,2+status,0]
	line	62
	
l991:	
;Config.c: 62: OSCFRQbits.HFFRQ = 6;
	movlb 18	; select bank18
	movf	(2335)^0900h,w	;volatile
	andlw	not (((1<<4)-1)<<0)
	iorlw	(06h & ((1<<4)-1))<<0
	movwf	(2335)^0900h	;volatile
	line	66
	
l993:	
;Config.c: 66: ANSELA = 0b000100;
	movlw	low(04h)
	movlb 3	; select bank3
	movwf	(396)^0180h	;volatile
	line	67
	
l995:	
;Config.c: 67: TRISA = 0b000111;
	movlw	low(07h)
	movlb 1	; select bank1
	movwf	(140)^080h	;volatile
	line	68
	
l997:	
;Config.c: 68: LATA = 0b000000;
	movlb 2	; select bank2
	clrf	(268)^0100h	;volatile
	line	70
	
l999:	
;Config.c: 70: RA5PPS = 0x0C;
	movlw	low(0Ch)
	movlb 29	; select bank29
	movwf	(3733)^0E80h	;volatile
	line	76
	
l1001:	
;Config.c: 74: ADCON1 =
;Config.c: 75: 6 << 0x4
;Config.c: 76: ;
	movlw	low(060h)
	movlb 1	; select bank1
	movwf	(158)^080h	;volatile
	line	80
	
l1003:	
;Config.c: 80: PR2 = 250 - 1;
	movlw	low(0F9h)
	movlb 0	; select bank0
	movwf	(30)	;volatile
	line	81
	
l1005:	
;Config.c: 81: TMR2 = 0;
	clrf	(29)	;volatile
	line	86
	
l1007:	
;Config.c: 82: T2CON =
;Config.c: 83: 0 << 0x0 |
;Config.c: 84: 0 << 0x3 |
;Config.c: 85: 1 << 0x2
;Config.c: 86: ;
	movlw	low(04h)
	movwf	(31)	;volatile
	line	88
	
l1009:	
;Config.c: 88: CCPR1 = 0x100;
	movlw	01h
	movlb 5	; select bank5
	movwf	(657+1)^0280h	;volatile
	movlw	0
	movwf	(657)^0280h	;volatile
	line	93
	
l1011:	
;Config.c: 90: CCP1CON =
;Config.c: 91: 1 << 0x7 |
;Config.c: 92: 0x0F << 0x0
;Config.c: 93: ;
	movlw	low(08Fh)
	movwf	(659)^0280h	;volatile
	line	99
	
l1013:	
;Config.c: 97: PIE1 =
;Config.c: 98: 1 << 0x1
;Config.c: 99: ;
	movlw	low(02h)
	movlb 1	; select bank1
	movwf	(145)^080h	;volatile
	line	103
	
l1015:	
;Config.c: 100: INTCON =
;Config.c: 101: 1 << 0x6 |
;Config.c: 102: 1 << 0x7
;Config.c: 103: ;
	movlw	low(0C0h)
	movwf	(11)	;volatile
	line	104
	
l143:	
	return
	opt stack 0
GLOBAL	__end_of_Chip_Init
	__end_of_Chip_Init:
	signat	_Chip_Init,89
	global	_App_Init

;; *************** function _App_Init *****************
;; Defined at:
;;		line 22 in file "C:\17\D\GitHub\17\PIC\1\16F18 VVVF - 01\App.c"
;; Parameters:    Size  Location     Type
;;		None
;; Auto vars:     Size  Location     Type
;;		None
;; Return value:  Size  Location     Type
;;                  1    wreg      void 
;; Registers used:
;;		wreg, status,2, status,0, pclath, cstack
;; Tracked objects:
;;		On entry : 0/0
;;		On exit  : 0/0
;;		Unchanged: 0/0
;; Data sizes:     COMMON   BANK0   BANK1   BANK2
;;      Params:         0       0       0       0
;;      Locals:         0       0       0       0
;;      Temps:          0       0       0       0
;;      Totals:         0       0       0       0
;;Total ram usage:        0 bytes
;; Hardware stack levels used:    1
;; Hardware stack levels required when called:    3
;; This function calls:
;;		_Voix_Set_Speed
;; This function is called by:
;;		_main
;; This function uses a non-reentrant model
;;
psect	text10,local,class=CODE,delta=2,merge=1,group=0
	file	"C:\17\D\GitHub\17\PIC\1\16F18 VVVF - 01\App.c"
	line	22
global __ptext10
__ptext10:	;psect for function _App_Init
psect	text10
	file	"C:\17\D\GitHub\17\PIC\1\16F18 VVVF - 01\App.c"
	line	22
	global	__size_of_App_Init
	__size_of_App_Init	equ	__end_of_App_Init-_App_Init
	
_App_Init:	
;incstack = 0
	opt	stack 12
; Regs used in _App_Init: [wreg+status,2+status,0+pclath+cstack]
	line	24
	
l989:	
;App.c: 24: Voix_Set_Speed( 0 );
	movlw	0
	movlb 0	; select bank0
	movwf	(Voix_Set_Speed@speed)
	movwf	(Voix_Set_Speed@speed+1)
	fcall	_Voix_Set_Speed
	line	25
	
l66:	
	return
	opt stack 0
GLOBAL	__end_of_App_Init
	__end_of_App_Init:
	signat	_App_Init,89
	global	_Voix_Set_Speed

;; *************** function _Voix_Set_Speed *****************
;; Defined at:
;;		line 45 in file "C:\17\D\GitHub\17\PIC\1\16F18 VVVF - 01\Voix.c"
;; Parameters:    Size  Location     Type
;;  speed           2    0[BANK0 ] unsigned short 
;; Auto vars:     Size  Location     Type
;;  power           2    8[BANK0 ] unsigned short 
;;  bias            2    6[BANK0 ] unsigned short 
;; Return value:  Size  Location     Type
;;                  1    wreg      void 
;; Registers used:
;;		wreg, status,2, status,0
;; Tracked objects:
;;		On entry : 0/0
;;		On exit  : 0/0
;;		Unchanged: 0/0
;; Data sizes:     COMMON   BANK0   BANK1   BANK2
;;      Params:         0       2       0       0
;;      Locals:         0       4       0       0
;;      Temps:          0       4       0       0
;;      Totals:         0      10       0       0
;;Total ram usage:       10 bytes
;; Hardware stack levels used:    1
;; Hardware stack levels required when called:    2
;; This function calls:
;;		Nothing
;; This function is called by:
;;		_App_Init
;;		_Train_Step
;; This function uses a non-reentrant model
;;
psect	text11,local,class=CODE,delta=2,merge=1,group=0
	file	"C:\17\D\GitHub\17\PIC\1\16F18 VVVF - 01\Voix.c"
	line	45
global __ptext11
__ptext11:	;psect for function _Voix_Set_Speed
psect	text11
	file	"C:\17\D\GitHub\17\PIC\1\16F18 VVVF - 01\Voix.c"
	line	45
	global	__size_of_Voix_Set_Speed
	__size_of_Voix_Set_Speed	equ	__end_of_Voix_Set_Speed-_Voix_Set_Speed
	
_Voix_Set_Speed:	
;incstack = 0
	opt	stack 10
; Regs used in _Voix_Set_Speed: [wreg+status,2+status,0]
	line	47
	
l865:	
;Voix.c: 47: Vo.Run = speed > 0;
	movlb 0	; select bank0
	movf	((Voix_Set_Speed@speed)),w
iorwf	((Voix_Set_Speed@speed+1)),w
	btfss	status,2
	goto	u391
	goto	u390
	
u391:
	movlb 0	; select bank0
	bsf	(_Vo),0
	goto	u404
u390:
	movlb 0	; select bank0
	bcf	(_Vo),0
u404:
	line	49
	
l867:	
;Voix.c: 49: if( Vo.Run )
	btfss	(_Vo),0
	goto	u411
	goto	u410
u411:
	goto	l889
u410:
	line	51
	
l869:	
;Voix.c: 50: {
;Voix.c: 51: uint16 bias = 0x200;
	movlw	0
	movwf	(Voix_Set_Speed@bias)
	movlw	02h
	movwf	((Voix_Set_Speed@bias))+1
	line	52
	
l871:	
;Voix.c: 52: uint16 power = ( speed >> 4 ) + bias;
	movf	(Voix_Set_Speed@speed+1),w
	movwf	(??_Voix_Set_Speed+0)+0+1
	movf	(Voix_Set_Speed@speed),w
	movwf	(??_Voix_Set_Speed+0)+0
	movlw	04h
u425:
	lsrf	(??_Voix_Set_Speed+0)+1,f
	rrf	(??_Voix_Set_Speed+0)+0,f
	decfsz	wreg,f
	goto	u425
	movf	(Voix_Set_Speed@bias),w
	addwf	0+(??_Voix_Set_Speed+0)+0,w
	movwf	(Voix_Set_Speed@power)
	movf	(Voix_Set_Speed@bias+1),w
	addwfc	1+(??_Voix_Set_Speed+0)+0,w
	movwf	1+(Voix_Set_Speed@power)
	line	54
	
l873:	
;Voix.c: 54: if( power > 0x0FFF ) power = 0x0FFF;
	movlw	010h
	subwf	(Voix_Set_Speed@power+1),w
	movlw	0
	skipnz
	subwf	(Voix_Set_Speed@power),w
	skipc
	goto	u431
	goto	u430
u431:
	goto	l877
u430:
	
l875:	
	movlw	0FFh
	movwf	(Voix_Set_Speed@power)
	movlw	0Fh
	movwf	((Voix_Set_Speed@power))+1
	goto	l877
	
l188:	
	line	59
	
l877:	
;Voix.c: 59: Vo_DC = ( power >> 3 );
	movf	(Voix_Set_Speed@power+1),w
	movwf	(??_Voix_Set_Speed+0)+0+1
	movf	(Voix_Set_Speed@power),w
	movwf	(??_Voix_Set_Speed+0)+0
	lsrf	(??_Voix_Set_Speed+0)+1,f
	rrf	(??_Voix_Set_Speed+0)+0,f
	lsrf	(??_Voix_Set_Speed+0)+1,f
	rrf	(??_Voix_Set_Speed+0)+0,f
	lsrf	(??_Voix_Set_Speed+0)+1,f
	rrf	(??_Voix_Set_Speed+0)+0,f
	movf	0+(??_Voix_Set_Speed+0)+0,w
	movwf	(_Vo_DC)
	movf	1+(??_Voix_Set_Speed+0)+0,w
	movwf	(_Vo_DC+1)
	line	61
	
l879:	
;Voix.c: 61: Vo_1_Width = ( power >> 4 );
	movf	(Voix_Set_Speed@power+1),w
	movwf	(??_Voix_Set_Speed+0)+0+1
	movf	(Voix_Set_Speed@power),w
	movwf	(??_Voix_Set_Speed+0)+0
	movlw	04h
u445:
	lsrf	(??_Voix_Set_Speed+0)+1,f
	rrf	(??_Voix_Set_Speed+0)+0,f
	decfsz	wreg,f
	goto	u445
	movf	0+(??_Voix_Set_Speed+0)+0,w
	movwf	(??_Voix_Set_Speed+2)+0
	movf	(??_Voix_Set_Speed+2)+0,w
	movwf	(_Vo_1_Width)
	line	62
	
l881:	
;Voix.c: 62: Vo_2_Width = ( power >> 4 );
	movf	(Voix_Set_Speed@power+1),w
	movwf	(??_Voix_Set_Speed+0)+0+1
	movf	(Voix_Set_Speed@power),w
	movwf	(??_Voix_Set_Speed+0)+0
	movlw	04h
u455:
	lsrf	(??_Voix_Set_Speed+0)+1,f
	rrf	(??_Voix_Set_Speed+0)+0,f
	decfsz	wreg,f
	goto	u455
	movf	0+(??_Voix_Set_Speed+0)+0,w
	movwf	(??_Voix_Set_Speed+2)+0
	movf	(??_Voix_Set_Speed+2)+0,w
	movwf	(_Vo_2_Width)
	line	64
	
l883:	
;Voix.c: 64: if( speed >= 0x0A00 )
	movlw	0Ah
	subwf	(Voix_Set_Speed@speed+1),w
	movlw	0
	skipnz
	subwf	(Voix_Set_Speed@speed),w
	skipc
	goto	u461
	goto	u460
u461:
	goto	l887
u460:
	line	66
	
l885:	
;Voix.c: 65: {
;Voix.c: 66: Vo_1_Freq = ( speed >> 6 );
	movf	(Voix_Set_Speed@speed+1),w
	movwf	(??_Voix_Set_Speed+0)+0+1
	movf	(Voix_Set_Speed@speed),w
	movwf	(??_Voix_Set_Speed+0)+0
	movlw	06h
u475:
	lsrf	(??_Voix_Set_Speed+0)+1,f
	rrf	(??_Voix_Set_Speed+0)+0,f
	decfsz	wreg,f
	goto	u475
	movf	0+(??_Voix_Set_Speed+0)+0,w
	movwf	(_Vo_1_Freq)
	movf	1+(??_Voix_Set_Speed+0)+0,w
	movwf	(_Vo_1_Freq+1)
	line	67
;Voix.c: 67: Vo_2_Freq = ( speed >> 6 ) + ( speed >> 4 );
	movf	(Voix_Set_Speed@speed+1),w
	movwf	(??_Voix_Set_Speed+0)+0+1
	movf	(Voix_Set_Speed@speed),w
	movwf	(??_Voix_Set_Speed+0)+0
	movlw	04h
u485:
	lsrf	(??_Voix_Set_Speed+0)+1,f
	rrf	(??_Voix_Set_Speed+0)+0,f
	decfsz	wreg,f
	goto	u485
	movf	(Voix_Set_Speed@speed+1),w
	movwf	(??_Voix_Set_Speed+2)+0+1
	movf	(Voix_Set_Speed@speed),w
	movwf	(??_Voix_Set_Speed+2)+0
	movlw	06h
u495:
	lsrf	(??_Voix_Set_Speed+2)+1,f
	rrf	(??_Voix_Set_Speed+2)+0,f
	decfsz	wreg,f
	goto	u495
	movf	0+(??_Voix_Set_Speed+0)+0,w
	addwf	0+(??_Voix_Set_Speed+2)+0,w
	movwf	(_Vo_2_Freq)
	movf	1+(??_Voix_Set_Speed+0)+0,w
	addwfc	1+(??_Voix_Set_Speed+2)+0,w
	movwf	1+(_Vo_2_Freq)
	line	68
;Voix.c: 68: }
	goto	l192
	line	69
	
l189:	
	line	71
	
l887:	
;Voix.c: 69: else
;Voix.c: 70: {
;Voix.c: 71: Vo_1_Freq = ( ( 200 ) * 65536 / 32000 );
	movlw	099h
	movwf	(_Vo_1_Freq)
	movlw	01h
	movwf	((_Vo_1_Freq))+1
	line	72
;Voix.c: 72: Vo_2_Freq = ( ( 400 ) * 65536 / 32000 );
	movlw	033h
	movwf	(_Vo_2_Freq)
	movlw	03h
	movwf	((_Vo_2_Freq))+1
	goto	l192
	line	73
	
l190:	
	line	74
;Voix.c: 73: }
;Voix.c: 74: }
	goto	l192
	line	75
	
l187:	
	line	77
	
l889:	
;Voix.c: 75: else
;Voix.c: 76: {
;Voix.c: 77: Vo_DC = 0x0060;
	movlw	060h
	movwf	(_Vo_DC)
	movlw	0
	movwf	((_Vo_DC))+1
	goto	l192
	line	78
	
l191:	
	line	79
	
l192:	
	return
	opt stack 0
GLOBAL	__end_of_Voix_Set_Speed
	__end_of_Voix_Set_Speed:
	signat	_Voix_Set_Speed,4217
	global	_ISR

;; *************** function _ISR *****************
;; Defined at:
;;		line 40 in file "C:\17\D\GitHub\17\PIC\1\16F18 VVVF - 01\Main.c"
;; Parameters:    Size  Location     Type
;;		None
;; Auto vars:     Size  Location     Type
;;		None
;; Return value:  Size  Location     Type
;;                  1    wreg      void 
;; Registers used:
;;		wreg, status,2, status,0, pclath, cstack
;; Tracked objects:
;;		On entry : 0/0
;;		On exit  : 0/0
;;		Unchanged: 0/0
;; Data sizes:     COMMON   BANK0   BANK1   BANK2
;;      Params:         0       0       0       0
;;      Locals:         0       0       0       0
;;      Temps:          2       0       0       0
;;      Totals:         2       0       0       0
;;Total ram usage:        2 bytes
;; Hardware stack levels used:    1
;; Hardware stack levels required when called:    1
;; This function calls:
;;		_Voix_int_Step
;; This function is called by:
;;		Interrupt level 1
;; This function uses a non-reentrant model
;;
psect	intentry,class=CODE,delta=2
global __pintentry
__pintentry:
psect	intentry
	file	"C:\17\D\GitHub\17\PIC\1\16F18 VVVF - 01\Main.c"
	line	40
	global	__size_of_ISR
	__size_of_ISR	equ	__end_of_ISR-_ISR
	
_ISR:	
;incstack = 0
	opt	stack 10
	bsf int$flags,0 ;set compiler interrupt flag (level 1)
; Regs used in _ISR: [wreg+status,2+status,0+pclath+cstack]
psect	intentry
	pagesel	$
	movlb 0	; select bank0
	movf	btemp+1,w
	movwf	(??_ISR+1)
	line	42
	
i1l1049:	
;Main.c: 42: if( TMR2IF )
	btfss	(137/8),(137)&7	;volatile
	goto	u75_21
	goto	u75_20
u75_21:
	goto	i1l35
u75_20:
	line	44
	
i1l1051:	
;Main.c: 43: {
;Main.c: 44: TMR2IF = 0;
	bcf	(137/8),(137)&7	;volatile
	line	46
	
i1l1053:	
;Main.c: 46: if( -- MidTick_DivCtr == 0 )
	movlw	01h
	subwf	(_MidTick_DivCtr),f
	btfss	status,2
	goto	u76_21
	goto	u76_20
u76_21:
	goto	i1l1059
u76_20:
	line	48
	
i1l1055:	
;Main.c: 47: {
;Main.c: 48: MidTick_DivCtr = 32;
	movlw	low(020h)
	movwf	(??_ISR+0)+0
	movf	(??_ISR+0)+0,w
	movwf	(_MidTick_DivCtr)
	line	49
	
i1l1057:	
;Main.c: 49: MidTick_Task ++;
	movlw	low(01h)
	movwf	(??_ISR+0)+0
	movf	(??_ISR+0)+0,w
	addwf	(_MidTick_Task),f
	goto	i1l1059
	line	50
	
i1l34:	
	line	52
	
i1l1059:	
;Main.c: 50: }
;Main.c: 52: CCPR1= Voix_int_Step();
	fcall	_Voix_int_Step
	movf	(1+(?_Voix_int_Step)),w
	movlb 5	; select bank5
	movwf	(657+1)^0280h	;volatile
	movf	(0+(?_Voix_int_Step)),w
	movwf	(657)^0280h	;volatile
	goto	i1l35
	line	53
	
i1l33:	
	line	54
	
i1l35:	
	movf	(??_ISR+1),w
	movlb 0	; select bank0
	movwf	btemp+1
	bcf int$flags,0 ;clear compiler interrupt flag (level 1)
	retfie
	opt stack 0
GLOBAL	__end_of_ISR
	__end_of_ISR:
	signat	_ISR,89
	global	_Voix_int_Step

;; *************** function _Voix_int_Step *****************
;; Defined at:
;;		line 81 in file "C:\17\D\GitHub\17\PIC\1\16F18 VVVF - 01\Voix.c"
;; Parameters:    Size  Location     Type
;;		None
;; Auto vars:     Size  Location     Type
;;  acc             2   10[COMMON] unsigned short 
;; Return value:  Size  Location     Type
;;                  2    0[COMMON] unsigned short 
;; Registers used:
;;		wreg, status,2, status,0
;; Tracked objects:
;;		On entry : 0/0
;;		On exit  : 0/0
;;		Unchanged: 0/0
;; Data sizes:     COMMON   BANK0   BANK1   BANK2
;;      Params:         2       0       0       0
;;      Locals:         6       0       0       0
;;      Temps:          4       0       0       0
;;      Totals:        12       0       0       0
;;Total ram usage:       12 bytes
;; Hardware stack levels used:    1
;; This function calls:
;;		Nothing
;; This function is called by:
;;		_ISR
;; This function uses a non-reentrant model
;;
psect	text13,local,class=CODE,delta=2,merge=1,group=0
	file	"C:\17\D\GitHub\17\PIC\1\16F18 VVVF - 01\Voix.c"
	line	81
global __ptext13
__ptext13:	;psect for function _Voix_int_Step
psect	text13
	file	"C:\17\D\GitHub\17\PIC\1\16F18 VVVF - 01\Voix.c"
	line	81
	global	__size_of_Voix_int_Step
	__size_of_Voix_int_Step	equ	__end_of_Voix_int_Step-_Voix_int_Step
	
_Voix_int_Step:	
;incstack = 0
	opt	stack 10
; Regs used in _Voix_int_Step: [wreg+status,2+status,0]
	line	83
	
i1l1021:	
;Voix.c: 83: uint16 acc = Vo_DC;
	movlb 0	; select bank0
	movf	(_Vo_DC+1),w
	movwf	(Voix_int_Step@acc+1)
	movf	(_Vo_DC),w
	movwf	(Voix_int_Step@acc)
	line	85
	
i1l1023:	
;Voix.c: 85: if( Vo.Run )
	btfss	(_Vo),0
	goto	u71_21
	goto	u71_20
u71_21:
	goto	i1l195
u71_20:
	line	87
	
i1l1025:	
;Voix.c: 86: {
;Voix.c: 87: Vo_1_Phase += Vo_1_Freq;
	movf	(_Vo_1_Freq),w
	addwf	(_Vo_1_Phase),f
	movf	(_Vo_1_Freq+1),w
	addwfc	(_Vo_1_Phase+1),f
	line	88
;Voix.c: 88: Vo_2_Phase += Vo_2_Freq;
	movf	(_Vo_2_Freq),w
	addwf	(_Vo_2_Phase),f
	movf	(_Vo_2_Freq+1),w
	addwfc	(_Vo_2_Phase+1),f
	line	90
	
i1l1027:	
;Voix.c: 90: acc += ( ( ( Vo_1_Phase >> 8 ) < Vo_1_Width ) ? Vo_1_Amp : 0 );
	movf	(_Vo_1_Width),w
	movwf	(??_Voix_int_Step+0)+0
	clrf	(??_Voix_int_Step+0)+0+1
	movf	(_Vo_1_Phase+1),w
	movwf	(??_Voix_int_Step+2)+0+1
	movf	(_Vo_1_Phase),w
	movwf	(??_Voix_int_Step+2)+0
	movf	(??_Voix_int_Step+2)+1,w
	movwf	(??_Voix_int_Step+2)+0
	clrf	(??_Voix_int_Step+2)+1
	movf	1+(??_Voix_int_Step+0)+0,w
	subwf	1+(??_Voix_int_Step+2)+0,w
	skipz
	goto	u72_25
	movf	0+(??_Voix_int_Step+0)+0,w
	subwf	0+(??_Voix_int_Step+2)+0,w
u72_25:
	skipc
	goto	u72_21
	goto	u72_20
u72_21:
	goto	i1l1031
u72_20:
	
i1l1029:	
	clrf	(_Voix_int_Step$164)
	clrf	(_Voix_int_Step$164+1)
	goto	i1l199
	
i1l197:	
	
i1l1031:	
	movf	(_Vo_1_Amp),w
	movwf	(??_Voix_int_Step+0)+0
	clrf	(??_Voix_int_Step+0)+0+1
	movf	0+(??_Voix_int_Step+0)+0,w
	movwf	(_Voix_int_Step$164)
	movf	1+(??_Voix_int_Step+0)+0,w
	movwf	(_Voix_int_Step$164+1)
	
i1l199:	
	movf	(_Voix_int_Step$164),w
	addwf	(Voix_int_Step@acc),f
	movf	(_Voix_int_Step$164+1),w
	addwfc	(Voix_int_Step@acc+1),f
	line	91
	
i1l1033:	
;Voix.c: 91: acc += ( ( ( Vo_2_Phase >> 8 ) < Vo_2_Width ) ? Vo_2_Amp : 0 );
	movf	(_Vo_2_Width),w
	movwf	(??_Voix_int_Step+0)+0
	clrf	(??_Voix_int_Step+0)+0+1
	movf	(_Vo_2_Phase+1),w
	movwf	(??_Voix_int_Step+2)+0+1
	movf	(_Vo_2_Phase),w
	movwf	(??_Voix_int_Step+2)+0
	movf	(??_Voix_int_Step+2)+1,w
	movwf	(??_Voix_int_Step+2)+0
	clrf	(??_Voix_int_Step+2)+1
	movf	1+(??_Voix_int_Step+0)+0,w
	subwf	1+(??_Voix_int_Step+2)+0,w
	skipz
	goto	u73_25
	movf	0+(??_Voix_int_Step+0)+0,w
	subwf	0+(??_Voix_int_Step+2)+0,w
u73_25:
	skipc
	goto	u73_21
	goto	u73_20
u73_21:
	goto	i1l1037
u73_20:
	
i1l1035:	
	clrf	(_Voix_int_Step$165)
	clrf	(_Voix_int_Step$165+1)
	goto	i1l203
	
i1l201:	
	
i1l1037:	
	movf	(_Vo_2_Amp),w
	movwf	(??_Voix_int_Step+0)+0
	clrf	(??_Voix_int_Step+0)+0+1
	movf	0+(??_Voix_int_Step+0)+0,w
	movwf	(_Voix_int_Step$165)
	movf	1+(??_Voix_int_Step+0)+0,w
	movwf	(_Voix_int_Step$165+1)
	
i1l203:	
	movf	(_Voix_int_Step$165),w
	addwf	(Voix_int_Step@acc),f
	movf	(_Voix_int_Step$165+1),w
	addwfc	(Voix_int_Step@acc+1),f
	line	92
	
i1l195:	
	line	94
;Voix.c: 92: }
;Voix.c: 94: return acc;
	movf	(Voix_int_Step@acc+1),w
	movwf	(?_Voix_int_Step+1)
	movf	(Voix_int_Step@acc),w
	movwf	(?_Voix_int_Step)
	goto	i1l204
	
i1l1039:	
	line	95
	
i1l204:	
	return
	opt stack 0
GLOBAL	__end_of_Voix_int_Step
	__end_of_Voix_int_Step:
	signat	_Voix_int_Step,90
global	___latbits
___latbits	equ	0
	global	btemp
	btemp set 07Eh

	DABS	1,126,2	;btemp
	global	int$flags
	int$flags	set btemp
	global	wtemp0
	wtemp0 set btemp+0
	end
